ARM GAS  C:\Users\nguye\AppData\Local\Temp\ccUjla8d.s 			page 1


   1              		.cpu cortex-m3
   2              		.eabi_attribute 20, 1
   3              		.eabi_attribute 21, 1
   4              		.eabi_attribute 23, 3
   5              		.eabi_attribute 24, 1
   6              		.eabi_attribute 25, 1
   7              		.eabi_attribute 26, 1
   8              		.eabi_attribute 30, 6
   9              		.eabi_attribute 34, 1
  10              		.eabi_attribute 18, 4
  11              		.file	"stm32f1xx_hal_uart.c"
  12              		.text
  13              	.Ltext0:
  14              		.cfi_sections	.debug_frame
  15              		.section	.text.HAL_UART_Init,"ax",%progbits
  16              		.align	1
  17              		.global	HAL_UART_Init
  18              		.arch armv7-m
  19              		.syntax unified
  20              		.thumb
  21              		.thumb_func
  22              		.fpu softvfp
  24              	HAL_UART_Init:
  25              	.LFB65:
  26              		.file 1 "./Drivers/STM32F1xx_HAL_Driver/Src/stm32f1xx_hal_uart.c"
   1:./Drivers/STM32F1xx_HAL_Driver/Src/stm32f1xx_hal_uart.c **** /**
   2:./Drivers/STM32F1xx_HAL_Driver/Src/stm32f1xx_hal_uart.c ****   ******************************************************************************
   3:./Drivers/STM32F1xx_HAL_Driver/Src/stm32f1xx_hal_uart.c ****   * @file    stm32f1xx_hal_uart.c
   4:./Drivers/STM32F1xx_HAL_Driver/Src/stm32f1xx_hal_uart.c ****   * @author  MCD Application Team
   5:./Drivers/STM32F1xx_HAL_Driver/Src/stm32f1xx_hal_uart.c ****   * @brief   UART HAL module driver.
   6:./Drivers/STM32F1xx_HAL_Driver/Src/stm32f1xx_hal_uart.c ****   *          This file provides firmware functions to manage the following
   7:./Drivers/STM32F1xx_HAL_Driver/Src/stm32f1xx_hal_uart.c ****   *          functionalities of the Universal Asynchronous Receiver Transmitter Peripheral (UART).
   8:./Drivers/STM32F1xx_HAL_Driver/Src/stm32f1xx_hal_uart.c ****   *           + Initialization and de-initialization functions
   9:./Drivers/STM32F1xx_HAL_Driver/Src/stm32f1xx_hal_uart.c ****   *           + IO operation functions
  10:./Drivers/STM32F1xx_HAL_Driver/Src/stm32f1xx_hal_uart.c ****   *           + Peripheral Control functions
  11:./Drivers/STM32F1xx_HAL_Driver/Src/stm32f1xx_hal_uart.c ****   *           + Peripheral State and Errors functions
  12:./Drivers/STM32F1xx_HAL_Driver/Src/stm32f1xx_hal_uart.c ****   @verbatim
  13:./Drivers/STM32F1xx_HAL_Driver/Src/stm32f1xx_hal_uart.c ****   ==============================================================================
  14:./Drivers/STM32F1xx_HAL_Driver/Src/stm32f1xx_hal_uart.c ****                         ##### How to use this driver #####
  15:./Drivers/STM32F1xx_HAL_Driver/Src/stm32f1xx_hal_uart.c ****   ==============================================================================
  16:./Drivers/STM32F1xx_HAL_Driver/Src/stm32f1xx_hal_uart.c ****   [..]
  17:./Drivers/STM32F1xx_HAL_Driver/Src/stm32f1xx_hal_uart.c ****     The UART HAL driver can be used as follows:
  18:./Drivers/STM32F1xx_HAL_Driver/Src/stm32f1xx_hal_uart.c **** 
  19:./Drivers/STM32F1xx_HAL_Driver/Src/stm32f1xx_hal_uart.c ****     (#) Declare a UART_HandleTypeDef handle structure (eg. UART_HandleTypeDef huart).
  20:./Drivers/STM32F1xx_HAL_Driver/Src/stm32f1xx_hal_uart.c ****     (#) Initialize the UART low level resources by implementing the HAL_UART_MspInit() API:
  21:./Drivers/STM32F1xx_HAL_Driver/Src/stm32f1xx_hal_uart.c ****         (##) Enable the USARTx interface clock.
  22:./Drivers/STM32F1xx_HAL_Driver/Src/stm32f1xx_hal_uart.c ****         (##) UART pins configuration:
  23:./Drivers/STM32F1xx_HAL_Driver/Src/stm32f1xx_hal_uart.c ****             (+++) Enable the clock for the UART GPIOs.
  24:./Drivers/STM32F1xx_HAL_Driver/Src/stm32f1xx_hal_uart.c ****             (+++) Configure the UART TX/RX pins as alternate function pull-up.
  25:./Drivers/STM32F1xx_HAL_Driver/Src/stm32f1xx_hal_uart.c ****         (##) NVIC configuration if you need to use interrupt process (HAL_UART_Transmit_IT()
  26:./Drivers/STM32F1xx_HAL_Driver/Src/stm32f1xx_hal_uart.c ****              and HAL_UART_Receive_IT() APIs):
  27:./Drivers/STM32F1xx_HAL_Driver/Src/stm32f1xx_hal_uart.c ****             (+++) Configure the USARTx interrupt priority.
  28:./Drivers/STM32F1xx_HAL_Driver/Src/stm32f1xx_hal_uart.c ****             (+++) Enable the NVIC USART IRQ handle.
  29:./Drivers/STM32F1xx_HAL_Driver/Src/stm32f1xx_hal_uart.c ****         (##) DMA Configuration if you need to use DMA process (HAL_UART_Transmit_DMA()
  30:./Drivers/STM32F1xx_HAL_Driver/Src/stm32f1xx_hal_uart.c ****              and HAL_UART_Receive_DMA() APIs):
  31:./Drivers/STM32F1xx_HAL_Driver/Src/stm32f1xx_hal_uart.c ****             (+++) Declare a DMA handle structure for the Tx/Rx channel.
  32:./Drivers/STM32F1xx_HAL_Driver/Src/stm32f1xx_hal_uart.c ****             (+++) Enable the DMAx interface clock.
ARM GAS  C:\Users\nguye\AppData\Local\Temp\ccUjla8d.s 			page 2


  33:./Drivers/STM32F1xx_HAL_Driver/Src/stm32f1xx_hal_uart.c ****             (+++) Configure the declared DMA handle structure with the required
  34:./Drivers/STM32F1xx_HAL_Driver/Src/stm32f1xx_hal_uart.c ****                   Tx/Rx parameters.
  35:./Drivers/STM32F1xx_HAL_Driver/Src/stm32f1xx_hal_uart.c ****             (+++) Configure the DMA Tx/Rx channel.
  36:./Drivers/STM32F1xx_HAL_Driver/Src/stm32f1xx_hal_uart.c ****             (+++) Associate the initialized DMA handle to the UART DMA Tx/Rx handle.
  37:./Drivers/STM32F1xx_HAL_Driver/Src/stm32f1xx_hal_uart.c ****             (+++) Configure the priority and enable the NVIC for the transfer complete
  38:./Drivers/STM32F1xx_HAL_Driver/Src/stm32f1xx_hal_uart.c ****                   interrupt on the DMA Tx/Rx channel.
  39:./Drivers/STM32F1xx_HAL_Driver/Src/stm32f1xx_hal_uart.c ****             (+++) Configure the USARTx interrupt priority and enable the NVIC USART IRQ handle
  40:./Drivers/STM32F1xx_HAL_Driver/Src/stm32f1xx_hal_uart.c ****                   (used for last byte sending completion detection in DMA non circular mode)
  41:./Drivers/STM32F1xx_HAL_Driver/Src/stm32f1xx_hal_uart.c **** 
  42:./Drivers/STM32F1xx_HAL_Driver/Src/stm32f1xx_hal_uart.c ****     (#) Program the Baud Rate, Word Length, Stop Bit, Parity, Hardware
  43:./Drivers/STM32F1xx_HAL_Driver/Src/stm32f1xx_hal_uart.c ****         flow control and Mode(Receiver/Transmitter) in the huart Init structure.
  44:./Drivers/STM32F1xx_HAL_Driver/Src/stm32f1xx_hal_uart.c **** 
  45:./Drivers/STM32F1xx_HAL_Driver/Src/stm32f1xx_hal_uart.c ****     (#) For the UART asynchronous mode, initialize the UART registers by calling
  46:./Drivers/STM32F1xx_HAL_Driver/Src/stm32f1xx_hal_uart.c ****         the HAL_UART_Init() API.
  47:./Drivers/STM32F1xx_HAL_Driver/Src/stm32f1xx_hal_uart.c **** 
  48:./Drivers/STM32F1xx_HAL_Driver/Src/stm32f1xx_hal_uart.c ****     (#) For the UART Half duplex mode, initialize the UART registers by calling
  49:./Drivers/STM32F1xx_HAL_Driver/Src/stm32f1xx_hal_uart.c ****         the HAL_HalfDuplex_Init() API.
  50:./Drivers/STM32F1xx_HAL_Driver/Src/stm32f1xx_hal_uart.c **** 
  51:./Drivers/STM32F1xx_HAL_Driver/Src/stm32f1xx_hal_uart.c ****     (#) For the LIN mode, initialize the UART registers by calling the HAL_LIN_Init() API.
  52:./Drivers/STM32F1xx_HAL_Driver/Src/stm32f1xx_hal_uart.c **** 
  53:./Drivers/STM32F1xx_HAL_Driver/Src/stm32f1xx_hal_uart.c ****     (#) For the Multi-Processor mode, initialize the UART registers by calling
  54:./Drivers/STM32F1xx_HAL_Driver/Src/stm32f1xx_hal_uart.c ****         the HAL_MultiProcessor_Init() API.
  55:./Drivers/STM32F1xx_HAL_Driver/Src/stm32f1xx_hal_uart.c **** 
  56:./Drivers/STM32F1xx_HAL_Driver/Src/stm32f1xx_hal_uart.c ****      [..]
  57:./Drivers/STM32F1xx_HAL_Driver/Src/stm32f1xx_hal_uart.c ****        (@) The specific UART interrupts (Transmission complete interrupt,
  58:./Drivers/STM32F1xx_HAL_Driver/Src/stm32f1xx_hal_uart.c ****             RXNE interrupt and Error Interrupts) will be managed using the macros
  59:./Drivers/STM32F1xx_HAL_Driver/Src/stm32f1xx_hal_uart.c ****             __HAL_UART_ENABLE_IT() and __HAL_UART_DISABLE_IT() inside the transmit
  60:./Drivers/STM32F1xx_HAL_Driver/Src/stm32f1xx_hal_uart.c ****             and receive process.
  61:./Drivers/STM32F1xx_HAL_Driver/Src/stm32f1xx_hal_uart.c **** 
  62:./Drivers/STM32F1xx_HAL_Driver/Src/stm32f1xx_hal_uart.c ****      [..]
  63:./Drivers/STM32F1xx_HAL_Driver/Src/stm32f1xx_hal_uart.c ****        (@) These APIs (HAL_UART_Init() and HAL_HalfDuplex_Init()) configure also the
  64:./Drivers/STM32F1xx_HAL_Driver/Src/stm32f1xx_hal_uart.c ****             low level Hardware GPIO, CLOCK, CORTEX...etc) by calling the customized
  65:./Drivers/STM32F1xx_HAL_Driver/Src/stm32f1xx_hal_uart.c ****             HAL_UART_MspInit() API.
  66:./Drivers/STM32F1xx_HAL_Driver/Src/stm32f1xx_hal_uart.c **** 
  67:./Drivers/STM32F1xx_HAL_Driver/Src/stm32f1xx_hal_uart.c ****     ##### Callback registration #####
  68:./Drivers/STM32F1xx_HAL_Driver/Src/stm32f1xx_hal_uart.c ****     ==================================
  69:./Drivers/STM32F1xx_HAL_Driver/Src/stm32f1xx_hal_uart.c **** 
  70:./Drivers/STM32F1xx_HAL_Driver/Src/stm32f1xx_hal_uart.c ****     [..]
  71:./Drivers/STM32F1xx_HAL_Driver/Src/stm32f1xx_hal_uart.c ****     The compilation define USE_HAL_UART_REGISTER_CALLBACKS when set to 1
  72:./Drivers/STM32F1xx_HAL_Driver/Src/stm32f1xx_hal_uart.c ****     allows the user to configure dynamically the driver callbacks.
  73:./Drivers/STM32F1xx_HAL_Driver/Src/stm32f1xx_hal_uart.c **** 
  74:./Drivers/STM32F1xx_HAL_Driver/Src/stm32f1xx_hal_uart.c ****     [..]
  75:./Drivers/STM32F1xx_HAL_Driver/Src/stm32f1xx_hal_uart.c ****     Use Function @ref HAL_UART_RegisterCallback() to register a user callback.
  76:./Drivers/STM32F1xx_HAL_Driver/Src/stm32f1xx_hal_uart.c ****     Function @ref HAL_UART_RegisterCallback() allows to register following callbacks:
  77:./Drivers/STM32F1xx_HAL_Driver/Src/stm32f1xx_hal_uart.c ****     (+) TxHalfCpltCallback        : Tx Half Complete Callback.
  78:./Drivers/STM32F1xx_HAL_Driver/Src/stm32f1xx_hal_uart.c ****     (+) TxCpltCallback            : Tx Complete Callback.
  79:./Drivers/STM32F1xx_HAL_Driver/Src/stm32f1xx_hal_uart.c ****     (+) RxHalfCpltCallback        : Rx Half Complete Callback.
  80:./Drivers/STM32F1xx_HAL_Driver/Src/stm32f1xx_hal_uart.c ****     (+) RxCpltCallback            : Rx Complete Callback.
  81:./Drivers/STM32F1xx_HAL_Driver/Src/stm32f1xx_hal_uart.c ****     (+) ErrorCallback             : Error Callback.
  82:./Drivers/STM32F1xx_HAL_Driver/Src/stm32f1xx_hal_uart.c ****     (+) AbortCpltCallback         : Abort Complete Callback.
  83:./Drivers/STM32F1xx_HAL_Driver/Src/stm32f1xx_hal_uart.c ****     (+) AbortTransmitCpltCallback : Abort Transmit Complete Callback.
  84:./Drivers/STM32F1xx_HAL_Driver/Src/stm32f1xx_hal_uart.c ****     (+) AbortReceiveCpltCallback  : Abort Receive Complete Callback.
  85:./Drivers/STM32F1xx_HAL_Driver/Src/stm32f1xx_hal_uart.c ****     (+) MspInitCallback           : UART MspInit.
  86:./Drivers/STM32F1xx_HAL_Driver/Src/stm32f1xx_hal_uart.c ****     (+) MspDeInitCallback         : UART MspDeInit.
  87:./Drivers/STM32F1xx_HAL_Driver/Src/stm32f1xx_hal_uart.c ****     This function takes as parameters the HAL peripheral handle, the Callback ID
  88:./Drivers/STM32F1xx_HAL_Driver/Src/stm32f1xx_hal_uart.c ****     and a pointer to the user callback function.
  89:./Drivers/STM32F1xx_HAL_Driver/Src/stm32f1xx_hal_uart.c **** 
ARM GAS  C:\Users\nguye\AppData\Local\Temp\ccUjla8d.s 			page 3


  90:./Drivers/STM32F1xx_HAL_Driver/Src/stm32f1xx_hal_uart.c ****     [..]
  91:./Drivers/STM32F1xx_HAL_Driver/Src/stm32f1xx_hal_uart.c ****     Use function @ref HAL_UART_UnRegisterCallback() to reset a callback to the default
  92:./Drivers/STM32F1xx_HAL_Driver/Src/stm32f1xx_hal_uart.c ****     weak (surcharged) function.
  93:./Drivers/STM32F1xx_HAL_Driver/Src/stm32f1xx_hal_uart.c ****     @ref HAL_UART_UnRegisterCallback() takes as parameters the HAL peripheral handle,
  94:./Drivers/STM32F1xx_HAL_Driver/Src/stm32f1xx_hal_uart.c ****     and the Callback ID.
  95:./Drivers/STM32F1xx_HAL_Driver/Src/stm32f1xx_hal_uart.c ****     This function allows to reset following callbacks:
  96:./Drivers/STM32F1xx_HAL_Driver/Src/stm32f1xx_hal_uart.c ****     (+) TxHalfCpltCallback        : Tx Half Complete Callback.
  97:./Drivers/STM32F1xx_HAL_Driver/Src/stm32f1xx_hal_uart.c ****     (+) TxCpltCallback            : Tx Complete Callback.
  98:./Drivers/STM32F1xx_HAL_Driver/Src/stm32f1xx_hal_uart.c ****     (+) RxHalfCpltCallback        : Rx Half Complete Callback.
  99:./Drivers/STM32F1xx_HAL_Driver/Src/stm32f1xx_hal_uart.c ****     (+) RxCpltCallback            : Rx Complete Callback.
 100:./Drivers/STM32F1xx_HAL_Driver/Src/stm32f1xx_hal_uart.c ****     (+) ErrorCallback             : Error Callback.
 101:./Drivers/STM32F1xx_HAL_Driver/Src/stm32f1xx_hal_uart.c ****     (+) AbortCpltCallback         : Abort Complete Callback.
 102:./Drivers/STM32F1xx_HAL_Driver/Src/stm32f1xx_hal_uart.c ****     (+) AbortTransmitCpltCallback : Abort Transmit Complete Callback.
 103:./Drivers/STM32F1xx_HAL_Driver/Src/stm32f1xx_hal_uart.c ****     (+) AbortReceiveCpltCallback  : Abort Receive Complete Callback.
 104:./Drivers/STM32F1xx_HAL_Driver/Src/stm32f1xx_hal_uart.c ****     (+) MspInitCallback           : UART MspInit.
 105:./Drivers/STM32F1xx_HAL_Driver/Src/stm32f1xx_hal_uart.c ****     (+) MspDeInitCallback         : UART MspDeInit.
 106:./Drivers/STM32F1xx_HAL_Driver/Src/stm32f1xx_hal_uart.c **** 
 107:./Drivers/STM32F1xx_HAL_Driver/Src/stm32f1xx_hal_uart.c ****     [..]
 108:./Drivers/STM32F1xx_HAL_Driver/Src/stm32f1xx_hal_uart.c ****     For specific callback RxEventCallback, use dedicated registration/reset functions:
 109:./Drivers/STM32F1xx_HAL_Driver/Src/stm32f1xx_hal_uart.c ****     respectively @ref HAL_UART_RegisterRxEventCallback() , @ref HAL_UART_UnRegisterRxEventCallback(
 110:./Drivers/STM32F1xx_HAL_Driver/Src/stm32f1xx_hal_uart.c **** 
 111:./Drivers/STM32F1xx_HAL_Driver/Src/stm32f1xx_hal_uart.c ****     [..]
 112:./Drivers/STM32F1xx_HAL_Driver/Src/stm32f1xx_hal_uart.c ****     By default, after the @ref HAL_UART_Init() and when the state is HAL_UART_STATE_RESET
 113:./Drivers/STM32F1xx_HAL_Driver/Src/stm32f1xx_hal_uart.c ****     all callbacks are set to the corresponding weak (surcharged) functions:
 114:./Drivers/STM32F1xx_HAL_Driver/Src/stm32f1xx_hal_uart.c ****     examples @ref HAL_UART_TxCpltCallback(), @ref HAL_UART_RxHalfCpltCallback().
 115:./Drivers/STM32F1xx_HAL_Driver/Src/stm32f1xx_hal_uart.c ****     Exception done for MspInit and MspDeInit functions that are respectively
 116:./Drivers/STM32F1xx_HAL_Driver/Src/stm32f1xx_hal_uart.c ****     reset to the legacy weak (surcharged) functions in the @ref HAL_UART_Init()
 117:./Drivers/STM32F1xx_HAL_Driver/Src/stm32f1xx_hal_uart.c ****     and @ref HAL_UART_DeInit() only when these callbacks are null (not registered beforehand).
 118:./Drivers/STM32F1xx_HAL_Driver/Src/stm32f1xx_hal_uart.c ****     If not, MspInit or MspDeInit are not null, the @ref HAL_UART_Init() and @ref HAL_UART_DeInit()
 119:./Drivers/STM32F1xx_HAL_Driver/Src/stm32f1xx_hal_uart.c ****     keep and use the user MspInit/MspDeInit callbacks (registered beforehand).
 120:./Drivers/STM32F1xx_HAL_Driver/Src/stm32f1xx_hal_uart.c **** 
 121:./Drivers/STM32F1xx_HAL_Driver/Src/stm32f1xx_hal_uart.c ****     [..]
 122:./Drivers/STM32F1xx_HAL_Driver/Src/stm32f1xx_hal_uart.c ****     Callbacks can be registered/unregistered in HAL_UART_STATE_READY state only.
 123:./Drivers/STM32F1xx_HAL_Driver/Src/stm32f1xx_hal_uart.c ****     Exception done MspInit/MspDeInit that can be registered/unregistered
 124:./Drivers/STM32F1xx_HAL_Driver/Src/stm32f1xx_hal_uart.c ****     in HAL_UART_STATE_READY or HAL_UART_STATE_RESET state, thus registered (user)
 125:./Drivers/STM32F1xx_HAL_Driver/Src/stm32f1xx_hal_uart.c ****     MspInit/DeInit callbacks can be used during the Init/DeInit.
 126:./Drivers/STM32F1xx_HAL_Driver/Src/stm32f1xx_hal_uart.c ****     In that case first register the MspInit/MspDeInit user callbacks
 127:./Drivers/STM32F1xx_HAL_Driver/Src/stm32f1xx_hal_uart.c ****     using @ref HAL_UART_RegisterCallback() before calling @ref HAL_UART_DeInit()
 128:./Drivers/STM32F1xx_HAL_Driver/Src/stm32f1xx_hal_uart.c ****     or @ref HAL_UART_Init() function.
 129:./Drivers/STM32F1xx_HAL_Driver/Src/stm32f1xx_hal_uart.c **** 
 130:./Drivers/STM32F1xx_HAL_Driver/Src/stm32f1xx_hal_uart.c ****     [..]
 131:./Drivers/STM32F1xx_HAL_Driver/Src/stm32f1xx_hal_uart.c ****     When The compilation define USE_HAL_UART_REGISTER_CALLBACKS is set to 0 or
 132:./Drivers/STM32F1xx_HAL_Driver/Src/stm32f1xx_hal_uart.c ****     not defined, the callback registration feature is not available
 133:./Drivers/STM32F1xx_HAL_Driver/Src/stm32f1xx_hal_uart.c ****     and weak (surcharged) callbacks are used.
 134:./Drivers/STM32F1xx_HAL_Driver/Src/stm32f1xx_hal_uart.c **** 
 135:./Drivers/STM32F1xx_HAL_Driver/Src/stm32f1xx_hal_uart.c ****      [..]
 136:./Drivers/STM32F1xx_HAL_Driver/Src/stm32f1xx_hal_uart.c ****         Three operation modes are available within this driver :
 137:./Drivers/STM32F1xx_HAL_Driver/Src/stm32f1xx_hal_uart.c **** 
 138:./Drivers/STM32F1xx_HAL_Driver/Src/stm32f1xx_hal_uart.c ****      *** Polling mode IO operation ***
 139:./Drivers/STM32F1xx_HAL_Driver/Src/stm32f1xx_hal_uart.c ****      =================================
 140:./Drivers/STM32F1xx_HAL_Driver/Src/stm32f1xx_hal_uart.c ****      [..]
 141:./Drivers/STM32F1xx_HAL_Driver/Src/stm32f1xx_hal_uart.c ****        (+) Send an amount of data in blocking mode using HAL_UART_Transmit()
 142:./Drivers/STM32F1xx_HAL_Driver/Src/stm32f1xx_hal_uart.c ****        (+) Receive an amount of data in blocking mode using HAL_UART_Receive()
 143:./Drivers/STM32F1xx_HAL_Driver/Src/stm32f1xx_hal_uart.c **** 
 144:./Drivers/STM32F1xx_HAL_Driver/Src/stm32f1xx_hal_uart.c ****      *** Interrupt mode IO operation ***
 145:./Drivers/STM32F1xx_HAL_Driver/Src/stm32f1xx_hal_uart.c ****      ===================================
 146:./Drivers/STM32F1xx_HAL_Driver/Src/stm32f1xx_hal_uart.c ****      [..]
ARM GAS  C:\Users\nguye\AppData\Local\Temp\ccUjla8d.s 			page 4


 147:./Drivers/STM32F1xx_HAL_Driver/Src/stm32f1xx_hal_uart.c ****        (+) Send an amount of data in non blocking mode using HAL_UART_Transmit_IT()
 148:./Drivers/STM32F1xx_HAL_Driver/Src/stm32f1xx_hal_uart.c ****        (+) At transmission end of transfer HAL_UART_TxCpltCallback is executed and user can
 149:./Drivers/STM32F1xx_HAL_Driver/Src/stm32f1xx_hal_uart.c ****             add his own code by customization of function pointer HAL_UART_TxCpltCallback
 150:./Drivers/STM32F1xx_HAL_Driver/Src/stm32f1xx_hal_uart.c ****        (+) Receive an amount of data in non blocking mode using HAL_UART_Receive_IT()
 151:./Drivers/STM32F1xx_HAL_Driver/Src/stm32f1xx_hal_uart.c ****        (+) At reception end of transfer HAL_UART_RxCpltCallback is executed and user can
 152:./Drivers/STM32F1xx_HAL_Driver/Src/stm32f1xx_hal_uart.c ****             add his own code by customization of function pointer HAL_UART_RxCpltCallback
 153:./Drivers/STM32F1xx_HAL_Driver/Src/stm32f1xx_hal_uart.c ****        (+) In case of transfer Error, HAL_UART_ErrorCallback() function is executed and user can
 154:./Drivers/STM32F1xx_HAL_Driver/Src/stm32f1xx_hal_uart.c ****             add his own code by customization of function pointer HAL_UART_ErrorCallback
 155:./Drivers/STM32F1xx_HAL_Driver/Src/stm32f1xx_hal_uart.c **** 
 156:./Drivers/STM32F1xx_HAL_Driver/Src/stm32f1xx_hal_uart.c ****      *** DMA mode IO operation ***
 157:./Drivers/STM32F1xx_HAL_Driver/Src/stm32f1xx_hal_uart.c ****      ==============================
 158:./Drivers/STM32F1xx_HAL_Driver/Src/stm32f1xx_hal_uart.c ****      [..]
 159:./Drivers/STM32F1xx_HAL_Driver/Src/stm32f1xx_hal_uart.c ****        (+) Send an amount of data in non blocking mode (DMA) using HAL_UART_Transmit_DMA()
 160:./Drivers/STM32F1xx_HAL_Driver/Src/stm32f1xx_hal_uart.c ****        (+) At transmission end of half transfer HAL_UART_TxHalfCpltCallback is executed and user ca
 161:./Drivers/STM32F1xx_HAL_Driver/Src/stm32f1xx_hal_uart.c ****             add his own code by customization of function pointer HAL_UART_TxHalfCpltCallback
 162:./Drivers/STM32F1xx_HAL_Driver/Src/stm32f1xx_hal_uart.c ****        (+) At transmission end of transfer HAL_UART_TxCpltCallback is executed and user can
 163:./Drivers/STM32F1xx_HAL_Driver/Src/stm32f1xx_hal_uart.c ****             add his own code by customization of function pointer HAL_UART_TxCpltCallback
 164:./Drivers/STM32F1xx_HAL_Driver/Src/stm32f1xx_hal_uart.c ****        (+) Receive an amount of data in non blocking mode (DMA) using HAL_UART_Receive_DMA()
 165:./Drivers/STM32F1xx_HAL_Driver/Src/stm32f1xx_hal_uart.c ****        (+) At reception end of half transfer HAL_UART_RxHalfCpltCallback is executed and user can
 166:./Drivers/STM32F1xx_HAL_Driver/Src/stm32f1xx_hal_uart.c ****             add his own code by customization of function pointer HAL_UART_RxHalfCpltCallback
 167:./Drivers/STM32F1xx_HAL_Driver/Src/stm32f1xx_hal_uart.c ****        (+) At reception end of transfer HAL_UART_RxCpltCallback is executed and user can
 168:./Drivers/STM32F1xx_HAL_Driver/Src/stm32f1xx_hal_uart.c ****             add his own code by customization of function pointer HAL_UART_RxCpltCallback
 169:./Drivers/STM32F1xx_HAL_Driver/Src/stm32f1xx_hal_uart.c ****        (+) In case of transfer Error, HAL_UART_ErrorCallback() function is executed and user can
 170:./Drivers/STM32F1xx_HAL_Driver/Src/stm32f1xx_hal_uart.c ****             add his own code by customization of function pointer HAL_UART_ErrorCallback
 171:./Drivers/STM32F1xx_HAL_Driver/Src/stm32f1xx_hal_uart.c ****        (+) Pause the DMA Transfer using HAL_UART_DMAPause()
 172:./Drivers/STM32F1xx_HAL_Driver/Src/stm32f1xx_hal_uart.c ****        (+) Resume the DMA Transfer using HAL_UART_DMAResume()
 173:./Drivers/STM32F1xx_HAL_Driver/Src/stm32f1xx_hal_uart.c ****        (+) Stop the DMA Transfer using HAL_UART_DMAStop()
 174:./Drivers/STM32F1xx_HAL_Driver/Src/stm32f1xx_hal_uart.c **** 
 175:./Drivers/STM32F1xx_HAL_Driver/Src/stm32f1xx_hal_uart.c **** 
 176:./Drivers/STM32F1xx_HAL_Driver/Src/stm32f1xx_hal_uart.c ****     [..] This subsection also provides a set of additional functions providing enhanced reception
 177:./Drivers/STM32F1xx_HAL_Driver/Src/stm32f1xx_hal_uart.c ****     services to user. (For example, these functions allow application to handle use cases
 178:./Drivers/STM32F1xx_HAL_Driver/Src/stm32f1xx_hal_uart.c ****     where number of data to be received is unknown).
 179:./Drivers/STM32F1xx_HAL_Driver/Src/stm32f1xx_hal_uart.c **** 
 180:./Drivers/STM32F1xx_HAL_Driver/Src/stm32f1xx_hal_uart.c ****     (#) Compared to standard reception services which only consider number of received
 181:./Drivers/STM32F1xx_HAL_Driver/Src/stm32f1xx_hal_uart.c ****         data elements as reception completion criteria, these functions also consider additional ev
 182:./Drivers/STM32F1xx_HAL_Driver/Src/stm32f1xx_hal_uart.c ****         as triggers for updating reception status to caller :
 183:./Drivers/STM32F1xx_HAL_Driver/Src/stm32f1xx_hal_uart.c ****        (+) Detection of inactivity period (RX line has not been active for a given period).
 184:./Drivers/STM32F1xx_HAL_Driver/Src/stm32f1xx_hal_uart.c ****           (++) RX inactivity detected by IDLE event, i.e. RX line has been in idle state (normally 
 185:./Drivers/STM32F1xx_HAL_Driver/Src/stm32f1xx_hal_uart.c ****                for 1 frame time, after last received byte.
 186:./Drivers/STM32F1xx_HAL_Driver/Src/stm32f1xx_hal_uart.c **** 
 187:./Drivers/STM32F1xx_HAL_Driver/Src/stm32f1xx_hal_uart.c ****     (#) There are two mode of transfer:
 188:./Drivers/STM32F1xx_HAL_Driver/Src/stm32f1xx_hal_uart.c ****        (+) Blocking mode: The reception is performed in polling mode, until either expected number 
 189:./Drivers/STM32F1xx_HAL_Driver/Src/stm32f1xx_hal_uart.c ****            or till IDLE event occurs. Reception is handled only during function execution.
 190:./Drivers/STM32F1xx_HAL_Driver/Src/stm32f1xx_hal_uart.c ****            When function exits, no data reception could occur. HAL status and number of actually re
 191:./Drivers/STM32F1xx_HAL_Driver/Src/stm32f1xx_hal_uart.c ****            are returned by function after finishing transfer.
 192:./Drivers/STM32F1xx_HAL_Driver/Src/stm32f1xx_hal_uart.c ****        (+) Non-Blocking mode: The reception is performed using Interrupts or DMA.
 193:./Drivers/STM32F1xx_HAL_Driver/Src/stm32f1xx_hal_uart.c ****            These API's return the HAL status.
 194:./Drivers/STM32F1xx_HAL_Driver/Src/stm32f1xx_hal_uart.c ****            The end of the data processing will be indicated through the
 195:./Drivers/STM32F1xx_HAL_Driver/Src/stm32f1xx_hal_uart.c ****            dedicated UART IRQ when using Interrupt mode or the DMA IRQ when using DMA mode.
 196:./Drivers/STM32F1xx_HAL_Driver/Src/stm32f1xx_hal_uart.c ****            The HAL_UARTEx_RxEventCallback() user callback will be executed during Receive process
 197:./Drivers/STM32F1xx_HAL_Driver/Src/stm32f1xx_hal_uart.c ****            The HAL_UART_ErrorCallback()user callback will be executed when a reception error is det
 198:./Drivers/STM32F1xx_HAL_Driver/Src/stm32f1xx_hal_uart.c **** 
 199:./Drivers/STM32F1xx_HAL_Driver/Src/stm32f1xx_hal_uart.c ****     (#) Blocking mode API:
 200:./Drivers/STM32F1xx_HAL_Driver/Src/stm32f1xx_hal_uart.c ****         (+) HAL_UARTEx_ReceiveToIdle()
 201:./Drivers/STM32F1xx_HAL_Driver/Src/stm32f1xx_hal_uart.c **** 
 202:./Drivers/STM32F1xx_HAL_Driver/Src/stm32f1xx_hal_uart.c ****     (#) Non-Blocking mode API with Interrupt:
 203:./Drivers/STM32F1xx_HAL_Driver/Src/stm32f1xx_hal_uart.c ****         (+) HAL_UARTEx_ReceiveToIdle_IT()
ARM GAS  C:\Users\nguye\AppData\Local\Temp\ccUjla8d.s 			page 5


 204:./Drivers/STM32F1xx_HAL_Driver/Src/stm32f1xx_hal_uart.c **** 
 205:./Drivers/STM32F1xx_HAL_Driver/Src/stm32f1xx_hal_uart.c ****     (#) Non-Blocking mode API with DMA:
 206:./Drivers/STM32F1xx_HAL_Driver/Src/stm32f1xx_hal_uart.c ****         (+) HAL_UARTEx_ReceiveToIdle_DMA()
 207:./Drivers/STM32F1xx_HAL_Driver/Src/stm32f1xx_hal_uart.c **** 
 208:./Drivers/STM32F1xx_HAL_Driver/Src/stm32f1xx_hal_uart.c **** 
 209:./Drivers/STM32F1xx_HAL_Driver/Src/stm32f1xx_hal_uart.c ****      *** UART HAL driver macros list ***
 210:./Drivers/STM32F1xx_HAL_Driver/Src/stm32f1xx_hal_uart.c ****      =============================================
 211:./Drivers/STM32F1xx_HAL_Driver/Src/stm32f1xx_hal_uart.c ****      [..]
 212:./Drivers/STM32F1xx_HAL_Driver/Src/stm32f1xx_hal_uart.c ****        Below the list of most used macros in UART HAL driver.
 213:./Drivers/STM32F1xx_HAL_Driver/Src/stm32f1xx_hal_uart.c **** 
 214:./Drivers/STM32F1xx_HAL_Driver/Src/stm32f1xx_hal_uart.c ****       (+) __HAL_UART_ENABLE: Enable the UART peripheral
 215:./Drivers/STM32F1xx_HAL_Driver/Src/stm32f1xx_hal_uart.c ****       (+) __HAL_UART_DISABLE: Disable the UART peripheral
 216:./Drivers/STM32F1xx_HAL_Driver/Src/stm32f1xx_hal_uart.c ****       (+) __HAL_UART_GET_FLAG : Check whether the specified UART flag is set or not
 217:./Drivers/STM32F1xx_HAL_Driver/Src/stm32f1xx_hal_uart.c ****       (+) __HAL_UART_CLEAR_FLAG : Clear the specified UART pending flag
 218:./Drivers/STM32F1xx_HAL_Driver/Src/stm32f1xx_hal_uart.c ****       (+) __HAL_UART_ENABLE_IT: Enable the specified UART interrupt
 219:./Drivers/STM32F1xx_HAL_Driver/Src/stm32f1xx_hal_uart.c ****       (+) __HAL_UART_DISABLE_IT: Disable the specified UART interrupt
 220:./Drivers/STM32F1xx_HAL_Driver/Src/stm32f1xx_hal_uart.c ****       (+) __HAL_UART_GET_IT_SOURCE: Check whether the specified UART interrupt has occurred or not
 221:./Drivers/STM32F1xx_HAL_Driver/Src/stm32f1xx_hal_uart.c **** 
 222:./Drivers/STM32F1xx_HAL_Driver/Src/stm32f1xx_hal_uart.c ****      [..]
 223:./Drivers/STM32F1xx_HAL_Driver/Src/stm32f1xx_hal_uart.c ****        (@) You can refer to the UART HAL driver header file for more useful macros
 224:./Drivers/STM32F1xx_HAL_Driver/Src/stm32f1xx_hal_uart.c **** 
 225:./Drivers/STM32F1xx_HAL_Driver/Src/stm32f1xx_hal_uart.c ****   @endverbatim
 226:./Drivers/STM32F1xx_HAL_Driver/Src/stm32f1xx_hal_uart.c ****      [..]
 227:./Drivers/STM32F1xx_HAL_Driver/Src/stm32f1xx_hal_uart.c ****        (@) Additional remark: If the parity is enabled, then the MSB bit of the data written
 228:./Drivers/STM32F1xx_HAL_Driver/Src/stm32f1xx_hal_uart.c ****            in the data register is transmitted but is changed by the parity bit.
 229:./Drivers/STM32F1xx_HAL_Driver/Src/stm32f1xx_hal_uart.c ****            Depending on the frame length defined by the M bit (8-bits or 9-bits),
 230:./Drivers/STM32F1xx_HAL_Driver/Src/stm32f1xx_hal_uart.c ****            the possible UART frame formats are as listed in the following table:
 231:./Drivers/STM32F1xx_HAL_Driver/Src/stm32f1xx_hal_uart.c ****     +-------------------------------------------------------------+
 232:./Drivers/STM32F1xx_HAL_Driver/Src/stm32f1xx_hal_uart.c ****     |   M bit |  PCE bit  |            UART frame                 |
 233:./Drivers/STM32F1xx_HAL_Driver/Src/stm32f1xx_hal_uart.c ****     |---------------------|---------------------------------------|
 234:./Drivers/STM32F1xx_HAL_Driver/Src/stm32f1xx_hal_uart.c ****     |    0    |    0      |    | SB | 8 bit data | STB |          |
 235:./Drivers/STM32F1xx_HAL_Driver/Src/stm32f1xx_hal_uart.c ****     |---------|-----------|---------------------------------------|
 236:./Drivers/STM32F1xx_HAL_Driver/Src/stm32f1xx_hal_uart.c ****     |    0    |    1      |    | SB | 7 bit data | PB | STB |     |
 237:./Drivers/STM32F1xx_HAL_Driver/Src/stm32f1xx_hal_uart.c ****     |---------|-----------|---------------------------------------|
 238:./Drivers/STM32F1xx_HAL_Driver/Src/stm32f1xx_hal_uart.c ****     |    1    |    0      |    | SB | 9 bit data | STB |          |
 239:./Drivers/STM32F1xx_HAL_Driver/Src/stm32f1xx_hal_uart.c ****     |---------|-----------|---------------------------------------|
 240:./Drivers/STM32F1xx_HAL_Driver/Src/stm32f1xx_hal_uart.c ****     |    1    |    1      |    | SB | 8 bit data | PB | STB |     |
 241:./Drivers/STM32F1xx_HAL_Driver/Src/stm32f1xx_hal_uart.c ****     +-------------------------------------------------------------+
 242:./Drivers/STM32F1xx_HAL_Driver/Src/stm32f1xx_hal_uart.c ****   ******************************************************************************
 243:./Drivers/STM32F1xx_HAL_Driver/Src/stm32f1xx_hal_uart.c ****   * @attention
 244:./Drivers/STM32F1xx_HAL_Driver/Src/stm32f1xx_hal_uart.c ****   *
 245:./Drivers/STM32F1xx_HAL_Driver/Src/stm32f1xx_hal_uart.c ****   * <h2><center>&copy; Copyright (c) 2016 STMicroelectronics.
 246:./Drivers/STM32F1xx_HAL_Driver/Src/stm32f1xx_hal_uart.c ****   * All rights reserved.</center></h2>
 247:./Drivers/STM32F1xx_HAL_Driver/Src/stm32f1xx_hal_uart.c ****   *
 248:./Drivers/STM32F1xx_HAL_Driver/Src/stm32f1xx_hal_uart.c ****   * This software component is licensed by ST under BSD 3-Clause license,
 249:./Drivers/STM32F1xx_HAL_Driver/Src/stm32f1xx_hal_uart.c ****   * the "License"; You may not use this file except in compliance with the
 250:./Drivers/STM32F1xx_HAL_Driver/Src/stm32f1xx_hal_uart.c ****   * License. You may obtain a copy of the License at:
 251:./Drivers/STM32F1xx_HAL_Driver/Src/stm32f1xx_hal_uart.c ****   *                        opensource.org/licenses/BSD-3-Clause
 252:./Drivers/STM32F1xx_HAL_Driver/Src/stm32f1xx_hal_uart.c ****   *
 253:./Drivers/STM32F1xx_HAL_Driver/Src/stm32f1xx_hal_uart.c ****   ******************************************************************************
 254:./Drivers/STM32F1xx_HAL_Driver/Src/stm32f1xx_hal_uart.c ****   */
 255:./Drivers/STM32F1xx_HAL_Driver/Src/stm32f1xx_hal_uart.c **** 
 256:./Drivers/STM32F1xx_HAL_Driver/Src/stm32f1xx_hal_uart.c **** /* Includes ------------------------------------------------------------------*/
 257:./Drivers/STM32F1xx_HAL_Driver/Src/stm32f1xx_hal_uart.c **** #include "stm32f1xx_hal.h"
 258:./Drivers/STM32F1xx_HAL_Driver/Src/stm32f1xx_hal_uart.c **** 
 259:./Drivers/STM32F1xx_HAL_Driver/Src/stm32f1xx_hal_uart.c **** /** @addtogroup STM32F1xx_HAL_Driver
 260:./Drivers/STM32F1xx_HAL_Driver/Src/stm32f1xx_hal_uart.c ****   * @{
ARM GAS  C:\Users\nguye\AppData\Local\Temp\ccUjla8d.s 			page 6


 261:./Drivers/STM32F1xx_HAL_Driver/Src/stm32f1xx_hal_uart.c ****   */
 262:./Drivers/STM32F1xx_HAL_Driver/Src/stm32f1xx_hal_uart.c **** 
 263:./Drivers/STM32F1xx_HAL_Driver/Src/stm32f1xx_hal_uart.c **** /** @defgroup UART UART
 264:./Drivers/STM32F1xx_HAL_Driver/Src/stm32f1xx_hal_uart.c ****   * @brief HAL UART module driver
 265:./Drivers/STM32F1xx_HAL_Driver/Src/stm32f1xx_hal_uart.c ****   * @{
 266:./Drivers/STM32F1xx_HAL_Driver/Src/stm32f1xx_hal_uart.c ****   */
 267:./Drivers/STM32F1xx_HAL_Driver/Src/stm32f1xx_hal_uart.c **** #ifdef HAL_UART_MODULE_ENABLED
 268:./Drivers/STM32F1xx_HAL_Driver/Src/stm32f1xx_hal_uart.c **** 
 269:./Drivers/STM32F1xx_HAL_Driver/Src/stm32f1xx_hal_uart.c **** /* Private typedef -----------------------------------------------------------*/
 270:./Drivers/STM32F1xx_HAL_Driver/Src/stm32f1xx_hal_uart.c **** /* Private define ------------------------------------------------------------*/
 271:./Drivers/STM32F1xx_HAL_Driver/Src/stm32f1xx_hal_uart.c **** /** @addtogroup UART_Private_Constants
 272:./Drivers/STM32F1xx_HAL_Driver/Src/stm32f1xx_hal_uart.c ****   * @{
 273:./Drivers/STM32F1xx_HAL_Driver/Src/stm32f1xx_hal_uart.c ****   */
 274:./Drivers/STM32F1xx_HAL_Driver/Src/stm32f1xx_hal_uart.c **** /**
 275:./Drivers/STM32F1xx_HAL_Driver/Src/stm32f1xx_hal_uart.c ****   * @}
 276:./Drivers/STM32F1xx_HAL_Driver/Src/stm32f1xx_hal_uart.c ****   */
 277:./Drivers/STM32F1xx_HAL_Driver/Src/stm32f1xx_hal_uart.c **** /* Private macro -------------------------------------------------------------*/
 278:./Drivers/STM32F1xx_HAL_Driver/Src/stm32f1xx_hal_uart.c **** /* Private variables ---------------------------------------------------------*/
 279:./Drivers/STM32F1xx_HAL_Driver/Src/stm32f1xx_hal_uart.c **** /* Private function prototypes -----------------------------------------------*/
 280:./Drivers/STM32F1xx_HAL_Driver/Src/stm32f1xx_hal_uart.c **** /** @addtogroup UART_Private_Functions  UART Private Functions
 281:./Drivers/STM32F1xx_HAL_Driver/Src/stm32f1xx_hal_uart.c ****   * @{
 282:./Drivers/STM32F1xx_HAL_Driver/Src/stm32f1xx_hal_uart.c ****   */
 283:./Drivers/STM32F1xx_HAL_Driver/Src/stm32f1xx_hal_uart.c **** 
 284:./Drivers/STM32F1xx_HAL_Driver/Src/stm32f1xx_hal_uart.c **** #if (USE_HAL_UART_REGISTER_CALLBACKS == 1)
 285:./Drivers/STM32F1xx_HAL_Driver/Src/stm32f1xx_hal_uart.c **** void UART_InitCallbacksToDefault(UART_HandleTypeDef *huart);
 286:./Drivers/STM32F1xx_HAL_Driver/Src/stm32f1xx_hal_uart.c **** #endif /* USE_HAL_UART_REGISTER_CALLBACKS */
 287:./Drivers/STM32F1xx_HAL_Driver/Src/stm32f1xx_hal_uart.c **** static void UART_EndTxTransfer(UART_HandleTypeDef *huart);
 288:./Drivers/STM32F1xx_HAL_Driver/Src/stm32f1xx_hal_uart.c **** static void UART_EndRxTransfer(UART_HandleTypeDef *huart);
 289:./Drivers/STM32F1xx_HAL_Driver/Src/stm32f1xx_hal_uart.c **** static void UART_DMATransmitCplt(DMA_HandleTypeDef *hdma);
 290:./Drivers/STM32F1xx_HAL_Driver/Src/stm32f1xx_hal_uart.c **** static void UART_DMAReceiveCplt(DMA_HandleTypeDef *hdma);
 291:./Drivers/STM32F1xx_HAL_Driver/Src/stm32f1xx_hal_uart.c **** static void UART_DMATxHalfCplt(DMA_HandleTypeDef *hdma);
 292:./Drivers/STM32F1xx_HAL_Driver/Src/stm32f1xx_hal_uart.c **** static void UART_DMARxHalfCplt(DMA_HandleTypeDef *hdma);
 293:./Drivers/STM32F1xx_HAL_Driver/Src/stm32f1xx_hal_uart.c **** static void UART_DMAError(DMA_HandleTypeDef *hdma);
 294:./Drivers/STM32F1xx_HAL_Driver/Src/stm32f1xx_hal_uart.c **** static void UART_DMAAbortOnError(DMA_HandleTypeDef *hdma);
 295:./Drivers/STM32F1xx_HAL_Driver/Src/stm32f1xx_hal_uart.c **** static void UART_DMATxAbortCallback(DMA_HandleTypeDef *hdma);
 296:./Drivers/STM32F1xx_HAL_Driver/Src/stm32f1xx_hal_uart.c **** static void UART_DMARxAbortCallback(DMA_HandleTypeDef *hdma);
 297:./Drivers/STM32F1xx_HAL_Driver/Src/stm32f1xx_hal_uart.c **** static void UART_DMATxOnlyAbortCallback(DMA_HandleTypeDef *hdma);
 298:./Drivers/STM32F1xx_HAL_Driver/Src/stm32f1xx_hal_uart.c **** static void UART_DMARxOnlyAbortCallback(DMA_HandleTypeDef *hdma);
 299:./Drivers/STM32F1xx_HAL_Driver/Src/stm32f1xx_hal_uart.c **** static HAL_StatusTypeDef UART_Transmit_IT(UART_HandleTypeDef *huart);
 300:./Drivers/STM32F1xx_HAL_Driver/Src/stm32f1xx_hal_uart.c **** static HAL_StatusTypeDef UART_EndTransmit_IT(UART_HandleTypeDef *huart);
 301:./Drivers/STM32F1xx_HAL_Driver/Src/stm32f1xx_hal_uart.c **** static HAL_StatusTypeDef UART_Receive_IT(UART_HandleTypeDef *huart);
 302:./Drivers/STM32F1xx_HAL_Driver/Src/stm32f1xx_hal_uart.c **** static HAL_StatusTypeDef UART_WaitOnFlagUntilTimeout(UART_HandleTypeDef *huart, uint32_t Flag, Flag
 303:./Drivers/STM32F1xx_HAL_Driver/Src/stm32f1xx_hal_uart.c **** static void UART_SetConfig(UART_HandleTypeDef *huart);
 304:./Drivers/STM32F1xx_HAL_Driver/Src/stm32f1xx_hal_uart.c **** 
 305:./Drivers/STM32F1xx_HAL_Driver/Src/stm32f1xx_hal_uart.c **** /**
 306:./Drivers/STM32F1xx_HAL_Driver/Src/stm32f1xx_hal_uart.c ****   * @}
 307:./Drivers/STM32F1xx_HAL_Driver/Src/stm32f1xx_hal_uart.c ****   */
 308:./Drivers/STM32F1xx_HAL_Driver/Src/stm32f1xx_hal_uart.c **** 
 309:./Drivers/STM32F1xx_HAL_Driver/Src/stm32f1xx_hal_uart.c **** /* Exported functions ---------------------------------------------------------*/
 310:./Drivers/STM32F1xx_HAL_Driver/Src/stm32f1xx_hal_uart.c **** /** @defgroup UART_Exported_Functions UART Exported Functions
 311:./Drivers/STM32F1xx_HAL_Driver/Src/stm32f1xx_hal_uart.c ****   * @{
 312:./Drivers/STM32F1xx_HAL_Driver/Src/stm32f1xx_hal_uart.c ****   */
 313:./Drivers/STM32F1xx_HAL_Driver/Src/stm32f1xx_hal_uart.c **** 
 314:./Drivers/STM32F1xx_HAL_Driver/Src/stm32f1xx_hal_uart.c **** /** @defgroup UART_Exported_Functions_Group1 Initialization and de-initialization functions
 315:./Drivers/STM32F1xx_HAL_Driver/Src/stm32f1xx_hal_uart.c ****   *  @brief    Initialization and Configuration functions
 316:./Drivers/STM32F1xx_HAL_Driver/Src/stm32f1xx_hal_uart.c ****   *
 317:./Drivers/STM32F1xx_HAL_Driver/Src/stm32f1xx_hal_uart.c **** @verbatim
ARM GAS  C:\Users\nguye\AppData\Local\Temp\ccUjla8d.s 			page 7


 318:./Drivers/STM32F1xx_HAL_Driver/Src/stm32f1xx_hal_uart.c ****  ===============================================================================
 319:./Drivers/STM32F1xx_HAL_Driver/Src/stm32f1xx_hal_uart.c ****             ##### Initialization and Configuration functions #####
 320:./Drivers/STM32F1xx_HAL_Driver/Src/stm32f1xx_hal_uart.c ****  ===============================================================================
 321:./Drivers/STM32F1xx_HAL_Driver/Src/stm32f1xx_hal_uart.c ****     [..]
 322:./Drivers/STM32F1xx_HAL_Driver/Src/stm32f1xx_hal_uart.c ****     This subsection provides a set of functions allowing to initialize the USARTx or the UARTy
 323:./Drivers/STM32F1xx_HAL_Driver/Src/stm32f1xx_hal_uart.c ****     in asynchronous mode.
 324:./Drivers/STM32F1xx_HAL_Driver/Src/stm32f1xx_hal_uart.c ****       (+) For the asynchronous mode only these parameters can be configured:
 325:./Drivers/STM32F1xx_HAL_Driver/Src/stm32f1xx_hal_uart.c ****         (++) Baud Rate
 326:./Drivers/STM32F1xx_HAL_Driver/Src/stm32f1xx_hal_uart.c ****         (++) Word Length
 327:./Drivers/STM32F1xx_HAL_Driver/Src/stm32f1xx_hal_uart.c ****         (++) Stop Bit
 328:./Drivers/STM32F1xx_HAL_Driver/Src/stm32f1xx_hal_uart.c ****         (++) Parity: If the parity is enabled, then the MSB bit of the data written
 329:./Drivers/STM32F1xx_HAL_Driver/Src/stm32f1xx_hal_uart.c ****              in the data register is transmitted but is changed by the parity bit.
 330:./Drivers/STM32F1xx_HAL_Driver/Src/stm32f1xx_hal_uart.c ****              Depending on the frame length defined by the M bit (8-bits or 9-bits),
 331:./Drivers/STM32F1xx_HAL_Driver/Src/stm32f1xx_hal_uart.c ****              please refer to Reference manual for possible UART frame formats.
 332:./Drivers/STM32F1xx_HAL_Driver/Src/stm32f1xx_hal_uart.c ****         (++) Hardware flow control
 333:./Drivers/STM32F1xx_HAL_Driver/Src/stm32f1xx_hal_uart.c ****         (++) Receiver/transmitter modes
 334:./Drivers/STM32F1xx_HAL_Driver/Src/stm32f1xx_hal_uart.c ****         (++) Over Sampling Method
 335:./Drivers/STM32F1xx_HAL_Driver/Src/stm32f1xx_hal_uart.c ****     [..]
 336:./Drivers/STM32F1xx_HAL_Driver/Src/stm32f1xx_hal_uart.c ****     The HAL_UART_Init(), HAL_HalfDuplex_Init(), HAL_LIN_Init() and HAL_MultiProcessor_Init() APIs
 337:./Drivers/STM32F1xx_HAL_Driver/Src/stm32f1xx_hal_uart.c ****     follow respectively the UART asynchronous, UART Half duplex, LIN and Multi-Processor configurat
 338:./Drivers/STM32F1xx_HAL_Driver/Src/stm32f1xx_hal_uart.c ****     procedures (details for the procedures are available in reference manuals
 339:./Drivers/STM32F1xx_HAL_Driver/Src/stm32f1xx_hal_uart.c ****     (RM0008 for STM32F10Xxx MCUs and RM0041 for STM32F100xx MCUs)).
 340:./Drivers/STM32F1xx_HAL_Driver/Src/stm32f1xx_hal_uart.c **** 
 341:./Drivers/STM32F1xx_HAL_Driver/Src/stm32f1xx_hal_uart.c **** @endverbatim
 342:./Drivers/STM32F1xx_HAL_Driver/Src/stm32f1xx_hal_uart.c ****   * @{
 343:./Drivers/STM32F1xx_HAL_Driver/Src/stm32f1xx_hal_uart.c ****   */
 344:./Drivers/STM32F1xx_HAL_Driver/Src/stm32f1xx_hal_uart.c **** 
 345:./Drivers/STM32F1xx_HAL_Driver/Src/stm32f1xx_hal_uart.c **** /**
 346:./Drivers/STM32F1xx_HAL_Driver/Src/stm32f1xx_hal_uart.c ****   * @brief  Initializes the UART mode according to the specified parameters in
 347:./Drivers/STM32F1xx_HAL_Driver/Src/stm32f1xx_hal_uart.c ****   *         the UART_InitTypeDef and create the associated handle.
 348:./Drivers/STM32F1xx_HAL_Driver/Src/stm32f1xx_hal_uart.c ****   * @param  huart  Pointer to a UART_HandleTypeDef structure that contains
 349:./Drivers/STM32F1xx_HAL_Driver/Src/stm32f1xx_hal_uart.c ****   *                the configuration information for the specified UART module.
 350:./Drivers/STM32F1xx_HAL_Driver/Src/stm32f1xx_hal_uart.c ****   * @retval HAL status
 351:./Drivers/STM32F1xx_HAL_Driver/Src/stm32f1xx_hal_uart.c ****   */
 352:./Drivers/STM32F1xx_HAL_Driver/Src/stm32f1xx_hal_uart.c **** HAL_StatusTypeDef HAL_UART_Init(UART_HandleTypeDef *huart)
 353:./Drivers/STM32F1xx_HAL_Driver/Src/stm32f1xx_hal_uart.c **** {
  27              		.loc 1 353 1
  28              		.cfi_startproc
  29              		@ args = 0, pretend = 0, frame = 8
  30              		@ frame_needed = 1, uses_anonymous_args = 0
  31 0000 80B5     		push	{r7, lr}
  32              		.cfi_def_cfa_offset 8
  33              		.cfi_offset 7, -8
  34              		.cfi_offset 14, -4
  35 0002 82B0     		sub	sp, sp, #8
  36              		.cfi_def_cfa_offset 16
  37 0004 00AF     		add	r7, sp, #0
  38              		.cfi_def_cfa_register 7
  39 0006 7860     		str	r0, [r7, #4]
 354:./Drivers/STM32F1xx_HAL_Driver/Src/stm32f1xx_hal_uart.c ****   /* Check the UART handle allocation */
 355:./Drivers/STM32F1xx_HAL_Driver/Src/stm32f1xx_hal_uart.c ****   if (huart == NULL)
  40              		.loc 1 355 6
  41 0008 7B68     		ldr	r3, [r7, #4]
  42 000a 002B     		cmp	r3, #0
  43 000c 01D1     		bne	.L2
 356:./Drivers/STM32F1xx_HAL_Driver/Src/stm32f1xx_hal_uart.c ****   {
 357:./Drivers/STM32F1xx_HAL_Driver/Src/stm32f1xx_hal_uart.c ****     return HAL_ERROR;
ARM GAS  C:\Users\nguye\AppData\Local\Temp\ccUjla8d.s 			page 8


  44              		.loc 1 357 12
  45 000e 0123     		movs	r3, #1
  46 0010 3FE0     		b	.L3
  47              	.L2:
 358:./Drivers/STM32F1xx_HAL_Driver/Src/stm32f1xx_hal_uart.c ****   }
 359:./Drivers/STM32F1xx_HAL_Driver/Src/stm32f1xx_hal_uart.c **** 
 360:./Drivers/STM32F1xx_HAL_Driver/Src/stm32f1xx_hal_uart.c ****   /* Check the parameters */
 361:./Drivers/STM32F1xx_HAL_Driver/Src/stm32f1xx_hal_uart.c ****   if (huart->Init.HwFlowCtl != UART_HWCONTROL_NONE)
 362:./Drivers/STM32F1xx_HAL_Driver/Src/stm32f1xx_hal_uart.c ****   {
 363:./Drivers/STM32F1xx_HAL_Driver/Src/stm32f1xx_hal_uart.c ****     /* The hardware flow control is available only for USART1, USART2 and USART3 */
 364:./Drivers/STM32F1xx_HAL_Driver/Src/stm32f1xx_hal_uart.c ****     assert_param(IS_UART_HWFLOW_INSTANCE(huart->Instance));
 365:./Drivers/STM32F1xx_HAL_Driver/Src/stm32f1xx_hal_uart.c ****     assert_param(IS_UART_HARDWARE_FLOW_CONTROL(huart->Init.HwFlowCtl));
 366:./Drivers/STM32F1xx_HAL_Driver/Src/stm32f1xx_hal_uart.c ****   }
 367:./Drivers/STM32F1xx_HAL_Driver/Src/stm32f1xx_hal_uart.c ****   else
 368:./Drivers/STM32F1xx_HAL_Driver/Src/stm32f1xx_hal_uart.c ****   {
 369:./Drivers/STM32F1xx_HAL_Driver/Src/stm32f1xx_hal_uart.c ****     assert_param(IS_UART_INSTANCE(huart->Instance));
 370:./Drivers/STM32F1xx_HAL_Driver/Src/stm32f1xx_hal_uart.c ****   }
 371:./Drivers/STM32F1xx_HAL_Driver/Src/stm32f1xx_hal_uart.c ****   assert_param(IS_UART_WORD_LENGTH(huart->Init.WordLength));
 372:./Drivers/STM32F1xx_HAL_Driver/Src/stm32f1xx_hal_uart.c **** #if defined(USART_CR1_OVER8)
 373:./Drivers/STM32F1xx_HAL_Driver/Src/stm32f1xx_hal_uart.c ****   assert_param(IS_UART_OVERSAMPLING(huart->Init.OverSampling));
 374:./Drivers/STM32F1xx_HAL_Driver/Src/stm32f1xx_hal_uart.c **** #endif /* USART_CR1_OVER8 */
 375:./Drivers/STM32F1xx_HAL_Driver/Src/stm32f1xx_hal_uart.c **** 
 376:./Drivers/STM32F1xx_HAL_Driver/Src/stm32f1xx_hal_uart.c ****   if (huart->gState == HAL_UART_STATE_RESET)
  48              		.loc 1 376 12
  49 0012 7B68     		ldr	r3, [r7, #4]
  50 0014 93F83D30 		ldrb	r3, [r3, #61]
  51 0018 DBB2     		uxtb	r3, r3
  52              		.loc 1 376 6
  53 001a 002B     		cmp	r3, #0
  54 001c 06D1     		bne	.L4
 377:./Drivers/STM32F1xx_HAL_Driver/Src/stm32f1xx_hal_uart.c ****   {
 378:./Drivers/STM32F1xx_HAL_Driver/Src/stm32f1xx_hal_uart.c ****     /* Allocate lock resource and initialize it */
 379:./Drivers/STM32F1xx_HAL_Driver/Src/stm32f1xx_hal_uart.c ****     huart->Lock = HAL_UNLOCKED;
  55              		.loc 1 379 17
  56 001e 7B68     		ldr	r3, [r7, #4]
  57 0020 0022     		movs	r2, #0
  58 0022 83F83C20 		strb	r2, [r3, #60]
 380:./Drivers/STM32F1xx_HAL_Driver/Src/stm32f1xx_hal_uart.c **** 
 381:./Drivers/STM32F1xx_HAL_Driver/Src/stm32f1xx_hal_uart.c **** #if (USE_HAL_UART_REGISTER_CALLBACKS == 1)
 382:./Drivers/STM32F1xx_HAL_Driver/Src/stm32f1xx_hal_uart.c ****     UART_InitCallbacksToDefault(huart);
 383:./Drivers/STM32F1xx_HAL_Driver/Src/stm32f1xx_hal_uart.c **** 
 384:./Drivers/STM32F1xx_HAL_Driver/Src/stm32f1xx_hal_uart.c ****     if (huart->MspInitCallback == NULL)
 385:./Drivers/STM32F1xx_HAL_Driver/Src/stm32f1xx_hal_uart.c ****     {
 386:./Drivers/STM32F1xx_HAL_Driver/Src/stm32f1xx_hal_uart.c ****       huart->MspInitCallback = HAL_UART_MspInit;
 387:./Drivers/STM32F1xx_HAL_Driver/Src/stm32f1xx_hal_uart.c ****     }
 388:./Drivers/STM32F1xx_HAL_Driver/Src/stm32f1xx_hal_uart.c **** 
 389:./Drivers/STM32F1xx_HAL_Driver/Src/stm32f1xx_hal_uart.c ****     /* Init the low level hardware */
 390:./Drivers/STM32F1xx_HAL_Driver/Src/stm32f1xx_hal_uart.c ****     huart->MspInitCallback(huart);
 391:./Drivers/STM32F1xx_HAL_Driver/Src/stm32f1xx_hal_uart.c **** #else
 392:./Drivers/STM32F1xx_HAL_Driver/Src/stm32f1xx_hal_uart.c ****     /* Init the low level hardware : GPIO, CLOCK */
 393:./Drivers/STM32F1xx_HAL_Driver/Src/stm32f1xx_hal_uart.c ****     HAL_UART_MspInit(huart);
  59              		.loc 1 393 5
  60 0026 7868     		ldr	r0, [r7, #4]
  61 0028 FFF7FEFF 		bl	HAL_UART_MspInit
  62              	.L4:
 394:./Drivers/STM32F1xx_HAL_Driver/Src/stm32f1xx_hal_uart.c **** #endif /* (USE_HAL_UART_REGISTER_CALLBACKS) */
 395:./Drivers/STM32F1xx_HAL_Driver/Src/stm32f1xx_hal_uart.c ****   }
ARM GAS  C:\Users\nguye\AppData\Local\Temp\ccUjla8d.s 			page 9


 396:./Drivers/STM32F1xx_HAL_Driver/Src/stm32f1xx_hal_uart.c **** 
 397:./Drivers/STM32F1xx_HAL_Driver/Src/stm32f1xx_hal_uart.c ****   huart->gState = HAL_UART_STATE_BUSY;
  63              		.loc 1 397 17
  64 002c 7B68     		ldr	r3, [r7, #4]
  65 002e 2422     		movs	r2, #36
  66 0030 83F83D20 		strb	r2, [r3, #61]
 398:./Drivers/STM32F1xx_HAL_Driver/Src/stm32f1xx_hal_uart.c **** 
 399:./Drivers/STM32F1xx_HAL_Driver/Src/stm32f1xx_hal_uart.c ****   /* Disable the peripheral */
 400:./Drivers/STM32F1xx_HAL_Driver/Src/stm32f1xx_hal_uart.c ****   __HAL_UART_DISABLE(huart);
  67              		.loc 1 400 3
  68 0034 7B68     		ldr	r3, [r7, #4]
  69 0036 1B68     		ldr	r3, [r3]
  70 0038 DA68     		ldr	r2, [r3, #12]
  71 003a 7B68     		ldr	r3, [r7, #4]
  72 003c 1B68     		ldr	r3, [r3]
  73 003e 22F40052 		bic	r2, r2, #8192
  74 0042 DA60     		str	r2, [r3, #12]
 401:./Drivers/STM32F1xx_HAL_Driver/Src/stm32f1xx_hal_uart.c **** 
 402:./Drivers/STM32F1xx_HAL_Driver/Src/stm32f1xx_hal_uart.c ****   /* Set the UART Communication parameters */
 403:./Drivers/STM32F1xx_HAL_Driver/Src/stm32f1xx_hal_uart.c ****   UART_SetConfig(huart);
  75              		.loc 1 403 3
  76 0044 7868     		ldr	r0, [r7, #4]
  77 0046 FFF7FEFF 		bl	UART_SetConfig
 404:./Drivers/STM32F1xx_HAL_Driver/Src/stm32f1xx_hal_uart.c **** 
 405:./Drivers/STM32F1xx_HAL_Driver/Src/stm32f1xx_hal_uart.c ****   /* In asynchronous mode, the following bits must be kept cleared:
 406:./Drivers/STM32F1xx_HAL_Driver/Src/stm32f1xx_hal_uart.c ****      - LINEN and CLKEN bits in the USART_CR2 register,
 407:./Drivers/STM32F1xx_HAL_Driver/Src/stm32f1xx_hal_uart.c ****      - SCEN, HDSEL and IREN  bits in the USART_CR3 register.*/
 408:./Drivers/STM32F1xx_HAL_Driver/Src/stm32f1xx_hal_uart.c ****   CLEAR_BIT(huart->Instance->CR2, (USART_CR2_LINEN | USART_CR2_CLKEN));
  78              		.loc 1 408 3
  79 004a 7B68     		ldr	r3, [r7, #4]
  80 004c 1B68     		ldr	r3, [r3]
  81 004e 1A69     		ldr	r2, [r3, #16]
  82 0050 7B68     		ldr	r3, [r7, #4]
  83 0052 1B68     		ldr	r3, [r3]
  84 0054 22F49042 		bic	r2, r2, #18432
  85 0058 1A61     		str	r2, [r3, #16]
 409:./Drivers/STM32F1xx_HAL_Driver/Src/stm32f1xx_hal_uart.c ****   CLEAR_BIT(huart->Instance->CR3, (USART_CR3_SCEN | USART_CR3_HDSEL | USART_CR3_IREN));
  86              		.loc 1 409 3
  87 005a 7B68     		ldr	r3, [r7, #4]
  88 005c 1B68     		ldr	r3, [r3]
  89 005e 5A69     		ldr	r2, [r3, #20]
  90 0060 7B68     		ldr	r3, [r7, #4]
  91 0062 1B68     		ldr	r3, [r3]
  92 0064 22F02A02 		bic	r2, r2, #42
  93 0068 5A61     		str	r2, [r3, #20]
 410:./Drivers/STM32F1xx_HAL_Driver/Src/stm32f1xx_hal_uart.c **** 
 411:./Drivers/STM32F1xx_HAL_Driver/Src/stm32f1xx_hal_uart.c ****   /* Enable the peripheral */
 412:./Drivers/STM32F1xx_HAL_Driver/Src/stm32f1xx_hal_uart.c ****   __HAL_UART_ENABLE(huart);
  94              		.loc 1 412 3
  95 006a 7B68     		ldr	r3, [r7, #4]
  96 006c 1B68     		ldr	r3, [r3]
  97 006e DA68     		ldr	r2, [r3, #12]
  98 0070 7B68     		ldr	r3, [r7, #4]
  99 0072 1B68     		ldr	r3, [r3]
 100 0074 42F40052 		orr	r2, r2, #8192
 101 0078 DA60     		str	r2, [r3, #12]
 413:./Drivers/STM32F1xx_HAL_Driver/Src/stm32f1xx_hal_uart.c **** 
ARM GAS  C:\Users\nguye\AppData\Local\Temp\ccUjla8d.s 			page 10


 414:./Drivers/STM32F1xx_HAL_Driver/Src/stm32f1xx_hal_uart.c ****   /* Initialize the UART state */
 415:./Drivers/STM32F1xx_HAL_Driver/Src/stm32f1xx_hal_uart.c ****   huart->ErrorCode = HAL_UART_ERROR_NONE;
 102              		.loc 1 415 20
 103 007a 7B68     		ldr	r3, [r7, #4]
 104 007c 0022     		movs	r2, #0
 105 007e 1A64     		str	r2, [r3, #64]
 416:./Drivers/STM32F1xx_HAL_Driver/Src/stm32f1xx_hal_uart.c ****   huart->gState = HAL_UART_STATE_READY;
 106              		.loc 1 416 17
 107 0080 7B68     		ldr	r3, [r7, #4]
 108 0082 2022     		movs	r2, #32
 109 0084 83F83D20 		strb	r2, [r3, #61]
 417:./Drivers/STM32F1xx_HAL_Driver/Src/stm32f1xx_hal_uart.c ****   huart->RxState = HAL_UART_STATE_READY;
 110              		.loc 1 417 18
 111 0088 7B68     		ldr	r3, [r7, #4]
 112 008a 2022     		movs	r2, #32
 113 008c 83F83E20 		strb	r2, [r3, #62]
 418:./Drivers/STM32F1xx_HAL_Driver/Src/stm32f1xx_hal_uart.c **** 
 419:./Drivers/STM32F1xx_HAL_Driver/Src/stm32f1xx_hal_uart.c ****   return HAL_OK;
 114              		.loc 1 419 10
 115 0090 0023     		movs	r3, #0
 116              	.L3:
 420:./Drivers/STM32F1xx_HAL_Driver/Src/stm32f1xx_hal_uart.c **** }
 117              		.loc 1 420 1
 118 0092 1846     		mov	r0, r3
 119 0094 0837     		adds	r7, r7, #8
 120              		.cfi_def_cfa_offset 8
 121 0096 BD46     		mov	sp, r7
 122              		.cfi_def_cfa_register 13
 123              		@ sp needed
 124 0098 80BD     		pop	{r7, pc}
 125              		.cfi_endproc
 126              	.LFE65:
 128              		.section	.text.HAL_HalfDuplex_Init,"ax",%progbits
 129              		.align	1
 130              		.global	HAL_HalfDuplex_Init
 131              		.syntax unified
 132              		.thumb
 133              		.thumb_func
 134              		.fpu softvfp
 136              	HAL_HalfDuplex_Init:
 137              	.LFB66:
 421:./Drivers/STM32F1xx_HAL_Driver/Src/stm32f1xx_hal_uart.c **** 
 422:./Drivers/STM32F1xx_HAL_Driver/Src/stm32f1xx_hal_uart.c **** /**
 423:./Drivers/STM32F1xx_HAL_Driver/Src/stm32f1xx_hal_uart.c ****   * @brief  Initializes the half-duplex mode according to the specified
 424:./Drivers/STM32F1xx_HAL_Driver/Src/stm32f1xx_hal_uart.c ****   *         parameters in the UART_InitTypeDef and create the associated handle.
 425:./Drivers/STM32F1xx_HAL_Driver/Src/stm32f1xx_hal_uart.c ****   * @param  huart  Pointer to a UART_HandleTypeDef structure that contains
 426:./Drivers/STM32F1xx_HAL_Driver/Src/stm32f1xx_hal_uart.c ****   *                the configuration information for the specified UART module.
 427:./Drivers/STM32F1xx_HAL_Driver/Src/stm32f1xx_hal_uart.c ****   * @retval HAL status
 428:./Drivers/STM32F1xx_HAL_Driver/Src/stm32f1xx_hal_uart.c ****   */
 429:./Drivers/STM32F1xx_HAL_Driver/Src/stm32f1xx_hal_uart.c **** HAL_StatusTypeDef HAL_HalfDuplex_Init(UART_HandleTypeDef *huart)
 430:./Drivers/STM32F1xx_HAL_Driver/Src/stm32f1xx_hal_uart.c **** {
 138              		.loc 1 430 1
 139              		.cfi_startproc
 140              		@ args = 0, pretend = 0, frame = 8
 141              		@ frame_needed = 1, uses_anonymous_args = 0
 142 0000 80B5     		push	{r7, lr}
 143              		.cfi_def_cfa_offset 8
ARM GAS  C:\Users\nguye\AppData\Local\Temp\ccUjla8d.s 			page 11


 144              		.cfi_offset 7, -8
 145              		.cfi_offset 14, -4
 146 0002 82B0     		sub	sp, sp, #8
 147              		.cfi_def_cfa_offset 16
 148 0004 00AF     		add	r7, sp, #0
 149              		.cfi_def_cfa_register 7
 150 0006 7860     		str	r0, [r7, #4]
 431:./Drivers/STM32F1xx_HAL_Driver/Src/stm32f1xx_hal_uart.c ****   /* Check the UART handle allocation */
 432:./Drivers/STM32F1xx_HAL_Driver/Src/stm32f1xx_hal_uart.c ****   if (huart == NULL)
 151              		.loc 1 432 6
 152 0008 7B68     		ldr	r3, [r7, #4]
 153 000a 002B     		cmp	r3, #0
 154 000c 01D1     		bne	.L6
 433:./Drivers/STM32F1xx_HAL_Driver/Src/stm32f1xx_hal_uart.c ****   {
 434:./Drivers/STM32F1xx_HAL_Driver/Src/stm32f1xx_hal_uart.c ****     return HAL_ERROR;
 155              		.loc 1 434 12
 156 000e 0123     		movs	r3, #1
 157 0010 47E0     		b	.L7
 158              	.L6:
 435:./Drivers/STM32F1xx_HAL_Driver/Src/stm32f1xx_hal_uart.c ****   }
 436:./Drivers/STM32F1xx_HAL_Driver/Src/stm32f1xx_hal_uart.c **** 
 437:./Drivers/STM32F1xx_HAL_Driver/Src/stm32f1xx_hal_uart.c ****   /* Check the parameters */
 438:./Drivers/STM32F1xx_HAL_Driver/Src/stm32f1xx_hal_uart.c ****   assert_param(IS_UART_HALFDUPLEX_INSTANCE(huart->Instance));
 439:./Drivers/STM32F1xx_HAL_Driver/Src/stm32f1xx_hal_uart.c ****   assert_param(IS_UART_WORD_LENGTH(huart->Init.WordLength));
 440:./Drivers/STM32F1xx_HAL_Driver/Src/stm32f1xx_hal_uart.c **** #if defined(USART_CR1_OVER8)
 441:./Drivers/STM32F1xx_HAL_Driver/Src/stm32f1xx_hal_uart.c ****   assert_param(IS_UART_OVERSAMPLING(huart->Init.OverSampling));
 442:./Drivers/STM32F1xx_HAL_Driver/Src/stm32f1xx_hal_uart.c **** #endif /* USART_CR1_OVER8 */
 443:./Drivers/STM32F1xx_HAL_Driver/Src/stm32f1xx_hal_uart.c **** 
 444:./Drivers/STM32F1xx_HAL_Driver/Src/stm32f1xx_hal_uart.c ****   if (huart->gState == HAL_UART_STATE_RESET)
 159              		.loc 1 444 12
 160 0012 7B68     		ldr	r3, [r7, #4]
 161 0014 93F83D30 		ldrb	r3, [r3, #61]
 162 0018 DBB2     		uxtb	r3, r3
 163              		.loc 1 444 6
 164 001a 002B     		cmp	r3, #0
 165 001c 06D1     		bne	.L8
 445:./Drivers/STM32F1xx_HAL_Driver/Src/stm32f1xx_hal_uart.c ****   {
 446:./Drivers/STM32F1xx_HAL_Driver/Src/stm32f1xx_hal_uart.c ****     /* Allocate lock resource and initialize it */
 447:./Drivers/STM32F1xx_HAL_Driver/Src/stm32f1xx_hal_uart.c ****     huart->Lock = HAL_UNLOCKED;
 166              		.loc 1 447 17
 167 001e 7B68     		ldr	r3, [r7, #4]
 168 0020 0022     		movs	r2, #0
 169 0022 83F83C20 		strb	r2, [r3, #60]
 448:./Drivers/STM32F1xx_HAL_Driver/Src/stm32f1xx_hal_uart.c **** 
 449:./Drivers/STM32F1xx_HAL_Driver/Src/stm32f1xx_hal_uart.c **** #if (USE_HAL_UART_REGISTER_CALLBACKS == 1)
 450:./Drivers/STM32F1xx_HAL_Driver/Src/stm32f1xx_hal_uart.c ****     UART_InitCallbacksToDefault(huart);
 451:./Drivers/STM32F1xx_HAL_Driver/Src/stm32f1xx_hal_uart.c **** 
 452:./Drivers/STM32F1xx_HAL_Driver/Src/stm32f1xx_hal_uart.c ****     if (huart->MspInitCallback == NULL)
 453:./Drivers/STM32F1xx_HAL_Driver/Src/stm32f1xx_hal_uart.c ****     {
 454:./Drivers/STM32F1xx_HAL_Driver/Src/stm32f1xx_hal_uart.c ****       huart->MspInitCallback = HAL_UART_MspInit;
 455:./Drivers/STM32F1xx_HAL_Driver/Src/stm32f1xx_hal_uart.c ****     }
 456:./Drivers/STM32F1xx_HAL_Driver/Src/stm32f1xx_hal_uart.c **** 
 457:./Drivers/STM32F1xx_HAL_Driver/Src/stm32f1xx_hal_uart.c ****     /* Init the low level hardware */
 458:./Drivers/STM32F1xx_HAL_Driver/Src/stm32f1xx_hal_uart.c ****     huart->MspInitCallback(huart);
 459:./Drivers/STM32F1xx_HAL_Driver/Src/stm32f1xx_hal_uart.c **** #else
 460:./Drivers/STM32F1xx_HAL_Driver/Src/stm32f1xx_hal_uart.c ****     /* Init the low level hardware : GPIO, CLOCK */
 461:./Drivers/STM32F1xx_HAL_Driver/Src/stm32f1xx_hal_uart.c ****     HAL_UART_MspInit(huart);
ARM GAS  C:\Users\nguye\AppData\Local\Temp\ccUjla8d.s 			page 12


 170              		.loc 1 461 5
 171 0026 7868     		ldr	r0, [r7, #4]
 172 0028 FFF7FEFF 		bl	HAL_UART_MspInit
 173              	.L8:
 462:./Drivers/STM32F1xx_HAL_Driver/Src/stm32f1xx_hal_uart.c **** #endif /* (USE_HAL_UART_REGISTER_CALLBACKS) */
 463:./Drivers/STM32F1xx_HAL_Driver/Src/stm32f1xx_hal_uart.c ****   }
 464:./Drivers/STM32F1xx_HAL_Driver/Src/stm32f1xx_hal_uart.c **** 
 465:./Drivers/STM32F1xx_HAL_Driver/Src/stm32f1xx_hal_uart.c ****   huart->gState = HAL_UART_STATE_BUSY;
 174              		.loc 1 465 17
 175 002c 7B68     		ldr	r3, [r7, #4]
 176 002e 2422     		movs	r2, #36
 177 0030 83F83D20 		strb	r2, [r3, #61]
 466:./Drivers/STM32F1xx_HAL_Driver/Src/stm32f1xx_hal_uart.c **** 
 467:./Drivers/STM32F1xx_HAL_Driver/Src/stm32f1xx_hal_uart.c ****   /* Disable the peripheral */
 468:./Drivers/STM32F1xx_HAL_Driver/Src/stm32f1xx_hal_uart.c ****   __HAL_UART_DISABLE(huart);
 178              		.loc 1 468 3
 179 0034 7B68     		ldr	r3, [r7, #4]
 180 0036 1B68     		ldr	r3, [r3]
 181 0038 DA68     		ldr	r2, [r3, #12]
 182 003a 7B68     		ldr	r3, [r7, #4]
 183 003c 1B68     		ldr	r3, [r3]
 184 003e 22F40052 		bic	r2, r2, #8192
 185 0042 DA60     		str	r2, [r3, #12]
 469:./Drivers/STM32F1xx_HAL_Driver/Src/stm32f1xx_hal_uart.c **** 
 470:./Drivers/STM32F1xx_HAL_Driver/Src/stm32f1xx_hal_uart.c ****   /* Set the UART Communication parameters */
 471:./Drivers/STM32F1xx_HAL_Driver/Src/stm32f1xx_hal_uart.c ****   UART_SetConfig(huart);
 186              		.loc 1 471 3
 187 0044 7868     		ldr	r0, [r7, #4]
 188 0046 FFF7FEFF 		bl	UART_SetConfig
 472:./Drivers/STM32F1xx_HAL_Driver/Src/stm32f1xx_hal_uart.c **** 
 473:./Drivers/STM32F1xx_HAL_Driver/Src/stm32f1xx_hal_uart.c ****   /* In half-duplex mode, the following bits must be kept cleared:
 474:./Drivers/STM32F1xx_HAL_Driver/Src/stm32f1xx_hal_uart.c ****      - LINEN and CLKEN bits in the USART_CR2 register,
 475:./Drivers/STM32F1xx_HAL_Driver/Src/stm32f1xx_hal_uart.c ****      - SCEN and IREN bits in the USART_CR3 register.*/
 476:./Drivers/STM32F1xx_HAL_Driver/Src/stm32f1xx_hal_uart.c ****   CLEAR_BIT(huart->Instance->CR2, (USART_CR2_LINEN | USART_CR2_CLKEN));
 189              		.loc 1 476 3
 190 004a 7B68     		ldr	r3, [r7, #4]
 191 004c 1B68     		ldr	r3, [r3]
 192 004e 1A69     		ldr	r2, [r3, #16]
 193 0050 7B68     		ldr	r3, [r7, #4]
 194 0052 1B68     		ldr	r3, [r3]
 195 0054 22F49042 		bic	r2, r2, #18432
 196 0058 1A61     		str	r2, [r3, #16]
 477:./Drivers/STM32F1xx_HAL_Driver/Src/stm32f1xx_hal_uart.c ****   CLEAR_BIT(huart->Instance->CR3, (USART_CR3_IREN | USART_CR3_SCEN));
 197              		.loc 1 477 3
 198 005a 7B68     		ldr	r3, [r7, #4]
 199 005c 1B68     		ldr	r3, [r3]
 200 005e 5A69     		ldr	r2, [r3, #20]
 201 0060 7B68     		ldr	r3, [r7, #4]
 202 0062 1B68     		ldr	r3, [r3]
 203 0064 22F02202 		bic	r2, r2, #34
 204 0068 5A61     		str	r2, [r3, #20]
 478:./Drivers/STM32F1xx_HAL_Driver/Src/stm32f1xx_hal_uart.c **** 
 479:./Drivers/STM32F1xx_HAL_Driver/Src/stm32f1xx_hal_uart.c ****   /* Enable the Half-Duplex mode by setting the HDSEL bit in the CR3 register */
 480:./Drivers/STM32F1xx_HAL_Driver/Src/stm32f1xx_hal_uart.c ****   SET_BIT(huart->Instance->CR3, USART_CR3_HDSEL);
 205              		.loc 1 480 3
 206 006a 7B68     		ldr	r3, [r7, #4]
 207 006c 1B68     		ldr	r3, [r3]
ARM GAS  C:\Users\nguye\AppData\Local\Temp\ccUjla8d.s 			page 13


 208 006e 5A69     		ldr	r2, [r3, #20]
 209 0070 7B68     		ldr	r3, [r7, #4]
 210 0072 1B68     		ldr	r3, [r3]
 211 0074 42F00802 		orr	r2, r2, #8
 212 0078 5A61     		str	r2, [r3, #20]
 481:./Drivers/STM32F1xx_HAL_Driver/Src/stm32f1xx_hal_uart.c **** 
 482:./Drivers/STM32F1xx_HAL_Driver/Src/stm32f1xx_hal_uart.c ****   /* Enable the peripheral */
 483:./Drivers/STM32F1xx_HAL_Driver/Src/stm32f1xx_hal_uart.c ****   __HAL_UART_ENABLE(huart);
 213              		.loc 1 483 3
 214 007a 7B68     		ldr	r3, [r7, #4]
 215 007c 1B68     		ldr	r3, [r3]
 216 007e DA68     		ldr	r2, [r3, #12]
 217 0080 7B68     		ldr	r3, [r7, #4]
 218 0082 1B68     		ldr	r3, [r3]
 219 0084 42F40052 		orr	r2, r2, #8192
 220 0088 DA60     		str	r2, [r3, #12]
 484:./Drivers/STM32F1xx_HAL_Driver/Src/stm32f1xx_hal_uart.c **** 
 485:./Drivers/STM32F1xx_HAL_Driver/Src/stm32f1xx_hal_uart.c ****   /* Initialize the UART state*/
 486:./Drivers/STM32F1xx_HAL_Driver/Src/stm32f1xx_hal_uart.c ****   huart->ErrorCode = HAL_UART_ERROR_NONE;
 221              		.loc 1 486 20
 222 008a 7B68     		ldr	r3, [r7, #4]
 223 008c 0022     		movs	r2, #0
 224 008e 1A64     		str	r2, [r3, #64]
 487:./Drivers/STM32F1xx_HAL_Driver/Src/stm32f1xx_hal_uart.c ****   huart->gState = HAL_UART_STATE_READY;
 225              		.loc 1 487 17
 226 0090 7B68     		ldr	r3, [r7, #4]
 227 0092 2022     		movs	r2, #32
 228 0094 83F83D20 		strb	r2, [r3, #61]
 488:./Drivers/STM32F1xx_HAL_Driver/Src/stm32f1xx_hal_uart.c ****   huart->RxState = HAL_UART_STATE_READY;
 229              		.loc 1 488 18
 230 0098 7B68     		ldr	r3, [r7, #4]
 231 009a 2022     		movs	r2, #32
 232 009c 83F83E20 		strb	r2, [r3, #62]
 489:./Drivers/STM32F1xx_HAL_Driver/Src/stm32f1xx_hal_uart.c **** 
 490:./Drivers/STM32F1xx_HAL_Driver/Src/stm32f1xx_hal_uart.c ****   return HAL_OK;
 233              		.loc 1 490 10
 234 00a0 0023     		movs	r3, #0
 235              	.L7:
 491:./Drivers/STM32F1xx_HAL_Driver/Src/stm32f1xx_hal_uart.c **** }
 236              		.loc 1 491 1
 237 00a2 1846     		mov	r0, r3
 238 00a4 0837     		adds	r7, r7, #8
 239              		.cfi_def_cfa_offset 8
 240 00a6 BD46     		mov	sp, r7
 241              		.cfi_def_cfa_register 13
 242              		@ sp needed
 243 00a8 80BD     		pop	{r7, pc}
 244              		.cfi_endproc
 245              	.LFE66:
 247              		.section	.text.HAL_LIN_Init,"ax",%progbits
 248              		.align	1
 249              		.global	HAL_LIN_Init
 250              		.syntax unified
 251              		.thumb
 252              		.thumb_func
 253              		.fpu softvfp
 255              	HAL_LIN_Init:
ARM GAS  C:\Users\nguye\AppData\Local\Temp\ccUjla8d.s 			page 14


 256              	.LFB67:
 492:./Drivers/STM32F1xx_HAL_Driver/Src/stm32f1xx_hal_uart.c **** 
 493:./Drivers/STM32F1xx_HAL_Driver/Src/stm32f1xx_hal_uart.c **** /**
 494:./Drivers/STM32F1xx_HAL_Driver/Src/stm32f1xx_hal_uart.c ****   * @brief  Initializes the LIN mode according to the specified
 495:./Drivers/STM32F1xx_HAL_Driver/Src/stm32f1xx_hal_uart.c ****   *         parameters in the UART_InitTypeDef and create the associated handle.
 496:./Drivers/STM32F1xx_HAL_Driver/Src/stm32f1xx_hal_uart.c ****   * @param  huart  Pointer to a UART_HandleTypeDef structure that contains
 497:./Drivers/STM32F1xx_HAL_Driver/Src/stm32f1xx_hal_uart.c ****   *                the configuration information for the specified UART module.
 498:./Drivers/STM32F1xx_HAL_Driver/Src/stm32f1xx_hal_uart.c ****   * @param  BreakDetectLength Specifies the LIN break detection length.
 499:./Drivers/STM32F1xx_HAL_Driver/Src/stm32f1xx_hal_uart.c ****   *         This parameter can be one of the following values:
 500:./Drivers/STM32F1xx_HAL_Driver/Src/stm32f1xx_hal_uart.c ****   *            @arg UART_LINBREAKDETECTLENGTH_10B: 10-bit break detection
 501:./Drivers/STM32F1xx_HAL_Driver/Src/stm32f1xx_hal_uart.c ****   *            @arg UART_LINBREAKDETECTLENGTH_11B: 11-bit break detection
 502:./Drivers/STM32F1xx_HAL_Driver/Src/stm32f1xx_hal_uart.c ****   * @retval HAL status
 503:./Drivers/STM32F1xx_HAL_Driver/Src/stm32f1xx_hal_uart.c ****   */
 504:./Drivers/STM32F1xx_HAL_Driver/Src/stm32f1xx_hal_uart.c **** HAL_StatusTypeDef HAL_LIN_Init(UART_HandleTypeDef *huart, uint32_t BreakDetectLength)
 505:./Drivers/STM32F1xx_HAL_Driver/Src/stm32f1xx_hal_uart.c **** {
 257              		.loc 1 505 1
 258              		.cfi_startproc
 259              		@ args = 0, pretend = 0, frame = 8
 260              		@ frame_needed = 1, uses_anonymous_args = 0
 261 0000 80B5     		push	{r7, lr}
 262              		.cfi_def_cfa_offset 8
 263              		.cfi_offset 7, -8
 264              		.cfi_offset 14, -4
 265 0002 82B0     		sub	sp, sp, #8
 266              		.cfi_def_cfa_offset 16
 267 0004 00AF     		add	r7, sp, #0
 268              		.cfi_def_cfa_register 7
 269 0006 7860     		str	r0, [r7, #4]
 270 0008 3960     		str	r1, [r7]
 506:./Drivers/STM32F1xx_HAL_Driver/Src/stm32f1xx_hal_uart.c ****   /* Check the UART handle allocation */
 507:./Drivers/STM32F1xx_HAL_Driver/Src/stm32f1xx_hal_uart.c ****   if (huart == NULL)
 271              		.loc 1 507 6
 272 000a 7B68     		ldr	r3, [r7, #4]
 273 000c 002B     		cmp	r3, #0
 274 000e 01D1     		bne	.L10
 508:./Drivers/STM32F1xx_HAL_Driver/Src/stm32f1xx_hal_uart.c ****   {
 509:./Drivers/STM32F1xx_HAL_Driver/Src/stm32f1xx_hal_uart.c ****     return HAL_ERROR;
 275              		.loc 1 509 12
 276 0010 0123     		movs	r3, #1
 277 0012 57E0     		b	.L11
 278              	.L10:
 510:./Drivers/STM32F1xx_HAL_Driver/Src/stm32f1xx_hal_uart.c ****   }
 511:./Drivers/STM32F1xx_HAL_Driver/Src/stm32f1xx_hal_uart.c **** 
 512:./Drivers/STM32F1xx_HAL_Driver/Src/stm32f1xx_hal_uart.c ****   /* Check the LIN UART instance */
 513:./Drivers/STM32F1xx_HAL_Driver/Src/stm32f1xx_hal_uart.c ****   assert_param(IS_UART_LIN_INSTANCE(huart->Instance));
 514:./Drivers/STM32F1xx_HAL_Driver/Src/stm32f1xx_hal_uart.c **** 
 515:./Drivers/STM32F1xx_HAL_Driver/Src/stm32f1xx_hal_uart.c ****   /* Check the Break detection length parameter */
 516:./Drivers/STM32F1xx_HAL_Driver/Src/stm32f1xx_hal_uart.c ****   assert_param(IS_UART_LIN_BREAK_DETECT_LENGTH(BreakDetectLength));
 517:./Drivers/STM32F1xx_HAL_Driver/Src/stm32f1xx_hal_uart.c ****   assert_param(IS_UART_LIN_WORD_LENGTH(huart->Init.WordLength));
 518:./Drivers/STM32F1xx_HAL_Driver/Src/stm32f1xx_hal_uart.c **** #if defined(USART_CR1_OVER8)
 519:./Drivers/STM32F1xx_HAL_Driver/Src/stm32f1xx_hal_uart.c ****   assert_param(IS_UART_LIN_OVERSAMPLING(huart->Init.OverSampling));
 520:./Drivers/STM32F1xx_HAL_Driver/Src/stm32f1xx_hal_uart.c **** #endif /* USART_CR1_OVER8 */
 521:./Drivers/STM32F1xx_HAL_Driver/Src/stm32f1xx_hal_uart.c **** 
 522:./Drivers/STM32F1xx_HAL_Driver/Src/stm32f1xx_hal_uart.c ****   if (huart->gState == HAL_UART_STATE_RESET)
 279              		.loc 1 522 12
 280 0014 7B68     		ldr	r3, [r7, #4]
 281 0016 93F83D30 		ldrb	r3, [r3, #61]
ARM GAS  C:\Users\nguye\AppData\Local\Temp\ccUjla8d.s 			page 15


 282 001a DBB2     		uxtb	r3, r3
 283              		.loc 1 522 6
 284 001c 002B     		cmp	r3, #0
 285 001e 06D1     		bne	.L12
 523:./Drivers/STM32F1xx_HAL_Driver/Src/stm32f1xx_hal_uart.c ****   {
 524:./Drivers/STM32F1xx_HAL_Driver/Src/stm32f1xx_hal_uart.c ****     /* Allocate lock resource and initialize it */
 525:./Drivers/STM32F1xx_HAL_Driver/Src/stm32f1xx_hal_uart.c ****     huart->Lock = HAL_UNLOCKED;
 286              		.loc 1 525 17
 287 0020 7B68     		ldr	r3, [r7, #4]
 288 0022 0022     		movs	r2, #0
 289 0024 83F83C20 		strb	r2, [r3, #60]
 526:./Drivers/STM32F1xx_HAL_Driver/Src/stm32f1xx_hal_uart.c **** 
 527:./Drivers/STM32F1xx_HAL_Driver/Src/stm32f1xx_hal_uart.c **** #if (USE_HAL_UART_REGISTER_CALLBACKS == 1)
 528:./Drivers/STM32F1xx_HAL_Driver/Src/stm32f1xx_hal_uart.c ****     UART_InitCallbacksToDefault(huart);
 529:./Drivers/STM32F1xx_HAL_Driver/Src/stm32f1xx_hal_uart.c **** 
 530:./Drivers/STM32F1xx_HAL_Driver/Src/stm32f1xx_hal_uart.c ****     if (huart->MspInitCallback == NULL)
 531:./Drivers/STM32F1xx_HAL_Driver/Src/stm32f1xx_hal_uart.c ****     {
 532:./Drivers/STM32F1xx_HAL_Driver/Src/stm32f1xx_hal_uart.c ****       huart->MspInitCallback = HAL_UART_MspInit;
 533:./Drivers/STM32F1xx_HAL_Driver/Src/stm32f1xx_hal_uart.c ****     }
 534:./Drivers/STM32F1xx_HAL_Driver/Src/stm32f1xx_hal_uart.c **** 
 535:./Drivers/STM32F1xx_HAL_Driver/Src/stm32f1xx_hal_uart.c ****     /* Init the low level hardware */
 536:./Drivers/STM32F1xx_HAL_Driver/Src/stm32f1xx_hal_uart.c ****     huart->MspInitCallback(huart);
 537:./Drivers/STM32F1xx_HAL_Driver/Src/stm32f1xx_hal_uart.c **** #else
 538:./Drivers/STM32F1xx_HAL_Driver/Src/stm32f1xx_hal_uart.c ****     /* Init the low level hardware : GPIO, CLOCK */
 539:./Drivers/STM32F1xx_HAL_Driver/Src/stm32f1xx_hal_uart.c ****     HAL_UART_MspInit(huart);
 290              		.loc 1 539 5
 291 0028 7868     		ldr	r0, [r7, #4]
 292 002a FFF7FEFF 		bl	HAL_UART_MspInit
 293              	.L12:
 540:./Drivers/STM32F1xx_HAL_Driver/Src/stm32f1xx_hal_uart.c **** #endif /* (USE_HAL_UART_REGISTER_CALLBACKS) */
 541:./Drivers/STM32F1xx_HAL_Driver/Src/stm32f1xx_hal_uart.c ****   }
 542:./Drivers/STM32F1xx_HAL_Driver/Src/stm32f1xx_hal_uart.c **** 
 543:./Drivers/STM32F1xx_HAL_Driver/Src/stm32f1xx_hal_uart.c ****   huart->gState = HAL_UART_STATE_BUSY;
 294              		.loc 1 543 17
 295 002e 7B68     		ldr	r3, [r7, #4]
 296 0030 2422     		movs	r2, #36
 297 0032 83F83D20 		strb	r2, [r3, #61]
 544:./Drivers/STM32F1xx_HAL_Driver/Src/stm32f1xx_hal_uart.c **** 
 545:./Drivers/STM32F1xx_HAL_Driver/Src/stm32f1xx_hal_uart.c ****   /* Disable the peripheral */
 546:./Drivers/STM32F1xx_HAL_Driver/Src/stm32f1xx_hal_uart.c ****   __HAL_UART_DISABLE(huart);
 298              		.loc 1 546 3
 299 0036 7B68     		ldr	r3, [r7, #4]
 300 0038 1B68     		ldr	r3, [r3]
 301 003a DA68     		ldr	r2, [r3, #12]
 302 003c 7B68     		ldr	r3, [r7, #4]
 303 003e 1B68     		ldr	r3, [r3]
 304 0040 22F40052 		bic	r2, r2, #8192
 305 0044 DA60     		str	r2, [r3, #12]
 547:./Drivers/STM32F1xx_HAL_Driver/Src/stm32f1xx_hal_uart.c **** 
 548:./Drivers/STM32F1xx_HAL_Driver/Src/stm32f1xx_hal_uart.c ****   /* Set the UART Communication parameters */
 549:./Drivers/STM32F1xx_HAL_Driver/Src/stm32f1xx_hal_uart.c ****   UART_SetConfig(huart);
 306              		.loc 1 549 3
 307 0046 7868     		ldr	r0, [r7, #4]
 308 0048 FFF7FEFF 		bl	UART_SetConfig
 550:./Drivers/STM32F1xx_HAL_Driver/Src/stm32f1xx_hal_uart.c **** 
 551:./Drivers/STM32F1xx_HAL_Driver/Src/stm32f1xx_hal_uart.c ****   /* In LIN mode, the following bits must be kept cleared:
 552:./Drivers/STM32F1xx_HAL_Driver/Src/stm32f1xx_hal_uart.c ****      - CLKEN bits in the USART_CR2 register,
ARM GAS  C:\Users\nguye\AppData\Local\Temp\ccUjla8d.s 			page 16


 553:./Drivers/STM32F1xx_HAL_Driver/Src/stm32f1xx_hal_uart.c ****      - SCEN, HDSEL and IREN bits in the USART_CR3 register.*/
 554:./Drivers/STM32F1xx_HAL_Driver/Src/stm32f1xx_hal_uart.c ****   CLEAR_BIT(huart->Instance->CR2, (USART_CR2_CLKEN));
 309              		.loc 1 554 3
 310 004c 7B68     		ldr	r3, [r7, #4]
 311 004e 1B68     		ldr	r3, [r3]
 312 0050 1A69     		ldr	r2, [r3, #16]
 313 0052 7B68     		ldr	r3, [r7, #4]
 314 0054 1B68     		ldr	r3, [r3]
 315 0056 22F40062 		bic	r2, r2, #2048
 316 005a 1A61     		str	r2, [r3, #16]
 555:./Drivers/STM32F1xx_HAL_Driver/Src/stm32f1xx_hal_uart.c ****   CLEAR_BIT(huart->Instance->CR3, (USART_CR3_HDSEL | USART_CR3_IREN | USART_CR3_SCEN));
 317              		.loc 1 555 3
 318 005c 7B68     		ldr	r3, [r7, #4]
 319 005e 1B68     		ldr	r3, [r3]
 320 0060 5A69     		ldr	r2, [r3, #20]
 321 0062 7B68     		ldr	r3, [r7, #4]
 322 0064 1B68     		ldr	r3, [r3]
 323 0066 22F02A02 		bic	r2, r2, #42
 324 006a 5A61     		str	r2, [r3, #20]
 556:./Drivers/STM32F1xx_HAL_Driver/Src/stm32f1xx_hal_uart.c **** 
 557:./Drivers/STM32F1xx_HAL_Driver/Src/stm32f1xx_hal_uart.c ****   /* Enable the LIN mode by setting the LINEN bit in the CR2 register */
 558:./Drivers/STM32F1xx_HAL_Driver/Src/stm32f1xx_hal_uart.c ****   SET_BIT(huart->Instance->CR2, USART_CR2_LINEN);
 325              		.loc 1 558 3
 326 006c 7B68     		ldr	r3, [r7, #4]
 327 006e 1B68     		ldr	r3, [r3]
 328 0070 1A69     		ldr	r2, [r3, #16]
 329 0072 7B68     		ldr	r3, [r7, #4]
 330 0074 1B68     		ldr	r3, [r3]
 331 0076 42F48042 		orr	r2, r2, #16384
 332 007a 1A61     		str	r2, [r3, #16]
 559:./Drivers/STM32F1xx_HAL_Driver/Src/stm32f1xx_hal_uart.c **** 
 560:./Drivers/STM32F1xx_HAL_Driver/Src/stm32f1xx_hal_uart.c ****   /* Set the USART LIN Break detection length. */
 561:./Drivers/STM32F1xx_HAL_Driver/Src/stm32f1xx_hal_uart.c ****   CLEAR_BIT(huart->Instance->CR2, USART_CR2_LBDL);
 333              		.loc 1 561 3
 334 007c 7B68     		ldr	r3, [r7, #4]
 335 007e 1B68     		ldr	r3, [r3]
 336 0080 1A69     		ldr	r2, [r3, #16]
 337 0082 7B68     		ldr	r3, [r7, #4]
 338 0084 1B68     		ldr	r3, [r3]
 339 0086 22F02002 		bic	r2, r2, #32
 340 008a 1A61     		str	r2, [r3, #16]
 562:./Drivers/STM32F1xx_HAL_Driver/Src/stm32f1xx_hal_uart.c ****   SET_BIT(huart->Instance->CR2, BreakDetectLength);
 341              		.loc 1 562 3
 342 008c 7B68     		ldr	r3, [r7, #4]
 343 008e 1B68     		ldr	r3, [r3]
 344 0090 1969     		ldr	r1, [r3, #16]
 345 0092 7B68     		ldr	r3, [r7, #4]
 346 0094 1B68     		ldr	r3, [r3]
 347 0096 3A68     		ldr	r2, [r7]
 348 0098 0A43     		orrs	r2, r2, r1
 349 009a 1A61     		str	r2, [r3, #16]
 563:./Drivers/STM32F1xx_HAL_Driver/Src/stm32f1xx_hal_uart.c **** 
 564:./Drivers/STM32F1xx_HAL_Driver/Src/stm32f1xx_hal_uart.c ****   /* Enable the peripheral */
 565:./Drivers/STM32F1xx_HAL_Driver/Src/stm32f1xx_hal_uart.c ****   __HAL_UART_ENABLE(huart);
 350              		.loc 1 565 3
 351 009c 7B68     		ldr	r3, [r7, #4]
 352 009e 1B68     		ldr	r3, [r3]
ARM GAS  C:\Users\nguye\AppData\Local\Temp\ccUjla8d.s 			page 17


 353 00a0 DA68     		ldr	r2, [r3, #12]
 354 00a2 7B68     		ldr	r3, [r7, #4]
 355 00a4 1B68     		ldr	r3, [r3]
 356 00a6 42F40052 		orr	r2, r2, #8192
 357 00aa DA60     		str	r2, [r3, #12]
 566:./Drivers/STM32F1xx_HAL_Driver/Src/stm32f1xx_hal_uart.c **** 
 567:./Drivers/STM32F1xx_HAL_Driver/Src/stm32f1xx_hal_uart.c ****   /* Initialize the UART state*/
 568:./Drivers/STM32F1xx_HAL_Driver/Src/stm32f1xx_hal_uart.c ****   huart->ErrorCode = HAL_UART_ERROR_NONE;
 358              		.loc 1 568 20
 359 00ac 7B68     		ldr	r3, [r7, #4]
 360 00ae 0022     		movs	r2, #0
 361 00b0 1A64     		str	r2, [r3, #64]
 569:./Drivers/STM32F1xx_HAL_Driver/Src/stm32f1xx_hal_uart.c ****   huart->gState = HAL_UART_STATE_READY;
 362              		.loc 1 569 17
 363 00b2 7B68     		ldr	r3, [r7, #4]
 364 00b4 2022     		movs	r2, #32
 365 00b6 83F83D20 		strb	r2, [r3, #61]
 570:./Drivers/STM32F1xx_HAL_Driver/Src/stm32f1xx_hal_uart.c ****   huart->RxState = HAL_UART_STATE_READY;
 366              		.loc 1 570 18
 367 00ba 7B68     		ldr	r3, [r7, #4]
 368 00bc 2022     		movs	r2, #32
 369 00be 83F83E20 		strb	r2, [r3, #62]
 571:./Drivers/STM32F1xx_HAL_Driver/Src/stm32f1xx_hal_uart.c **** 
 572:./Drivers/STM32F1xx_HAL_Driver/Src/stm32f1xx_hal_uart.c ****   return HAL_OK;
 370              		.loc 1 572 10
 371 00c2 0023     		movs	r3, #0
 372              	.L11:
 573:./Drivers/STM32F1xx_HAL_Driver/Src/stm32f1xx_hal_uart.c **** }
 373              		.loc 1 573 1
 374 00c4 1846     		mov	r0, r3
 375 00c6 0837     		adds	r7, r7, #8
 376              		.cfi_def_cfa_offset 8
 377 00c8 BD46     		mov	sp, r7
 378              		.cfi_def_cfa_register 13
 379              		@ sp needed
 380 00ca 80BD     		pop	{r7, pc}
 381              		.cfi_endproc
 382              	.LFE67:
 384              		.section	.text.HAL_MultiProcessor_Init,"ax",%progbits
 385              		.align	1
 386              		.global	HAL_MultiProcessor_Init
 387              		.syntax unified
 388              		.thumb
 389              		.thumb_func
 390              		.fpu softvfp
 392              	HAL_MultiProcessor_Init:
 393              	.LFB68:
 574:./Drivers/STM32F1xx_HAL_Driver/Src/stm32f1xx_hal_uart.c **** 
 575:./Drivers/STM32F1xx_HAL_Driver/Src/stm32f1xx_hal_uart.c **** /**
 576:./Drivers/STM32F1xx_HAL_Driver/Src/stm32f1xx_hal_uart.c ****   * @brief  Initializes the Multi-Processor mode according to the specified
 577:./Drivers/STM32F1xx_HAL_Driver/Src/stm32f1xx_hal_uart.c ****   *         parameters in the UART_InitTypeDef and create the associated handle.
 578:./Drivers/STM32F1xx_HAL_Driver/Src/stm32f1xx_hal_uart.c ****   * @param  huart  Pointer to a UART_HandleTypeDef structure that contains
 579:./Drivers/STM32F1xx_HAL_Driver/Src/stm32f1xx_hal_uart.c ****   *                the configuration information for the specified UART module.
 580:./Drivers/STM32F1xx_HAL_Driver/Src/stm32f1xx_hal_uart.c ****   * @param  Address USART address
 581:./Drivers/STM32F1xx_HAL_Driver/Src/stm32f1xx_hal_uart.c ****   * @param  WakeUpMethod specifies the USART wake-up method.
 582:./Drivers/STM32F1xx_HAL_Driver/Src/stm32f1xx_hal_uart.c ****   *         This parameter can be one of the following values:
 583:./Drivers/STM32F1xx_HAL_Driver/Src/stm32f1xx_hal_uart.c ****   *            @arg UART_WAKEUPMETHOD_IDLELINE: Wake-up by an idle line detection
ARM GAS  C:\Users\nguye\AppData\Local\Temp\ccUjla8d.s 			page 18


 584:./Drivers/STM32F1xx_HAL_Driver/Src/stm32f1xx_hal_uart.c ****   *            @arg UART_WAKEUPMETHOD_ADDRESSMARK: Wake-up by an address mark
 585:./Drivers/STM32F1xx_HAL_Driver/Src/stm32f1xx_hal_uart.c ****   * @retval HAL status
 586:./Drivers/STM32F1xx_HAL_Driver/Src/stm32f1xx_hal_uart.c ****   */
 587:./Drivers/STM32F1xx_HAL_Driver/Src/stm32f1xx_hal_uart.c **** HAL_StatusTypeDef HAL_MultiProcessor_Init(UART_HandleTypeDef *huart, uint8_t Address, uint32_t Wake
 588:./Drivers/STM32F1xx_HAL_Driver/Src/stm32f1xx_hal_uart.c **** {
 394              		.loc 1 588 1
 395              		.cfi_startproc
 396              		@ args = 0, pretend = 0, frame = 16
 397              		@ frame_needed = 1, uses_anonymous_args = 0
 398 0000 80B5     		push	{r7, lr}
 399              		.cfi_def_cfa_offset 8
 400              		.cfi_offset 7, -8
 401              		.cfi_offset 14, -4
 402 0002 84B0     		sub	sp, sp, #16
 403              		.cfi_def_cfa_offset 24
 404 0004 00AF     		add	r7, sp, #0
 405              		.cfi_def_cfa_register 7
 406 0006 F860     		str	r0, [r7, #12]
 407 0008 0B46     		mov	r3, r1
 408 000a 7A60     		str	r2, [r7, #4]
 409 000c FB72     		strb	r3, [r7, #11]
 589:./Drivers/STM32F1xx_HAL_Driver/Src/stm32f1xx_hal_uart.c ****   /* Check the UART handle allocation */
 590:./Drivers/STM32F1xx_HAL_Driver/Src/stm32f1xx_hal_uart.c ****   if (huart == NULL)
 410              		.loc 1 590 6
 411 000e FB68     		ldr	r3, [r7, #12]
 412 0010 002B     		cmp	r3, #0
 413 0012 01D1     		bne	.L14
 591:./Drivers/STM32F1xx_HAL_Driver/Src/stm32f1xx_hal_uart.c ****   {
 592:./Drivers/STM32F1xx_HAL_Driver/Src/stm32f1xx_hal_uart.c ****     return HAL_ERROR;
 414              		.loc 1 592 12
 415 0014 0123     		movs	r3, #1
 416 0016 5FE0     		b	.L15
 417              	.L14:
 593:./Drivers/STM32F1xx_HAL_Driver/Src/stm32f1xx_hal_uart.c ****   }
 594:./Drivers/STM32F1xx_HAL_Driver/Src/stm32f1xx_hal_uart.c **** 
 595:./Drivers/STM32F1xx_HAL_Driver/Src/stm32f1xx_hal_uart.c ****   /* Check the parameters */
 596:./Drivers/STM32F1xx_HAL_Driver/Src/stm32f1xx_hal_uart.c ****   assert_param(IS_UART_INSTANCE(huart->Instance));
 597:./Drivers/STM32F1xx_HAL_Driver/Src/stm32f1xx_hal_uart.c **** 
 598:./Drivers/STM32F1xx_HAL_Driver/Src/stm32f1xx_hal_uart.c ****   /* Check the Address & wake up method parameters */
 599:./Drivers/STM32F1xx_HAL_Driver/Src/stm32f1xx_hal_uart.c ****   assert_param(IS_UART_WAKEUPMETHOD(WakeUpMethod));
 600:./Drivers/STM32F1xx_HAL_Driver/Src/stm32f1xx_hal_uart.c ****   assert_param(IS_UART_ADDRESS(Address));
 601:./Drivers/STM32F1xx_HAL_Driver/Src/stm32f1xx_hal_uart.c ****   assert_param(IS_UART_WORD_LENGTH(huart->Init.WordLength));
 602:./Drivers/STM32F1xx_HAL_Driver/Src/stm32f1xx_hal_uart.c **** #if defined(USART_CR1_OVER8)
 603:./Drivers/STM32F1xx_HAL_Driver/Src/stm32f1xx_hal_uart.c ****   assert_param(IS_UART_OVERSAMPLING(huart->Init.OverSampling));
 604:./Drivers/STM32F1xx_HAL_Driver/Src/stm32f1xx_hal_uart.c **** #endif /* USART_CR1_OVER8 */
 605:./Drivers/STM32F1xx_HAL_Driver/Src/stm32f1xx_hal_uart.c **** 
 606:./Drivers/STM32F1xx_HAL_Driver/Src/stm32f1xx_hal_uart.c ****   if (huart->gState == HAL_UART_STATE_RESET)
 418              		.loc 1 606 12
 419 0018 FB68     		ldr	r3, [r7, #12]
 420 001a 93F83D30 		ldrb	r3, [r3, #61]
 421 001e DBB2     		uxtb	r3, r3
 422              		.loc 1 606 6
 423 0020 002B     		cmp	r3, #0
 424 0022 06D1     		bne	.L16
 607:./Drivers/STM32F1xx_HAL_Driver/Src/stm32f1xx_hal_uart.c ****   {
 608:./Drivers/STM32F1xx_HAL_Driver/Src/stm32f1xx_hal_uart.c ****     /* Allocate lock resource and initialize it */
 609:./Drivers/STM32F1xx_HAL_Driver/Src/stm32f1xx_hal_uart.c ****     huart->Lock = HAL_UNLOCKED;
ARM GAS  C:\Users\nguye\AppData\Local\Temp\ccUjla8d.s 			page 19


 425              		.loc 1 609 17
 426 0024 FB68     		ldr	r3, [r7, #12]
 427 0026 0022     		movs	r2, #0
 428 0028 83F83C20 		strb	r2, [r3, #60]
 610:./Drivers/STM32F1xx_HAL_Driver/Src/stm32f1xx_hal_uart.c **** 
 611:./Drivers/STM32F1xx_HAL_Driver/Src/stm32f1xx_hal_uart.c **** #if (USE_HAL_UART_REGISTER_CALLBACKS == 1)
 612:./Drivers/STM32F1xx_HAL_Driver/Src/stm32f1xx_hal_uart.c ****     UART_InitCallbacksToDefault(huart);
 613:./Drivers/STM32F1xx_HAL_Driver/Src/stm32f1xx_hal_uart.c **** 
 614:./Drivers/STM32F1xx_HAL_Driver/Src/stm32f1xx_hal_uart.c ****     if (huart->MspInitCallback == NULL)
 615:./Drivers/STM32F1xx_HAL_Driver/Src/stm32f1xx_hal_uart.c ****     {
 616:./Drivers/STM32F1xx_HAL_Driver/Src/stm32f1xx_hal_uart.c ****       huart->MspInitCallback = HAL_UART_MspInit;
 617:./Drivers/STM32F1xx_HAL_Driver/Src/stm32f1xx_hal_uart.c ****     }
 618:./Drivers/STM32F1xx_HAL_Driver/Src/stm32f1xx_hal_uart.c **** 
 619:./Drivers/STM32F1xx_HAL_Driver/Src/stm32f1xx_hal_uart.c ****     /* Init the low level hardware */
 620:./Drivers/STM32F1xx_HAL_Driver/Src/stm32f1xx_hal_uart.c ****     huart->MspInitCallback(huart);
 621:./Drivers/STM32F1xx_HAL_Driver/Src/stm32f1xx_hal_uart.c **** #else
 622:./Drivers/STM32F1xx_HAL_Driver/Src/stm32f1xx_hal_uart.c ****     /* Init the low level hardware : GPIO, CLOCK */
 623:./Drivers/STM32F1xx_HAL_Driver/Src/stm32f1xx_hal_uart.c ****     HAL_UART_MspInit(huart);
 429              		.loc 1 623 5
 430 002c F868     		ldr	r0, [r7, #12]
 431 002e FFF7FEFF 		bl	HAL_UART_MspInit
 432              	.L16:
 624:./Drivers/STM32F1xx_HAL_Driver/Src/stm32f1xx_hal_uart.c **** #endif /* (USE_HAL_UART_REGISTER_CALLBACKS) */
 625:./Drivers/STM32F1xx_HAL_Driver/Src/stm32f1xx_hal_uart.c ****   }
 626:./Drivers/STM32F1xx_HAL_Driver/Src/stm32f1xx_hal_uart.c **** 
 627:./Drivers/STM32F1xx_HAL_Driver/Src/stm32f1xx_hal_uart.c ****   huart->gState = HAL_UART_STATE_BUSY;
 433              		.loc 1 627 17
 434 0032 FB68     		ldr	r3, [r7, #12]
 435 0034 2422     		movs	r2, #36
 436 0036 83F83D20 		strb	r2, [r3, #61]
 628:./Drivers/STM32F1xx_HAL_Driver/Src/stm32f1xx_hal_uart.c **** 
 629:./Drivers/STM32F1xx_HAL_Driver/Src/stm32f1xx_hal_uart.c ****   /* Disable the peripheral */
 630:./Drivers/STM32F1xx_HAL_Driver/Src/stm32f1xx_hal_uart.c ****   __HAL_UART_DISABLE(huart);
 437              		.loc 1 630 3
 438 003a FB68     		ldr	r3, [r7, #12]
 439 003c 1B68     		ldr	r3, [r3]
 440 003e DA68     		ldr	r2, [r3, #12]
 441 0040 FB68     		ldr	r3, [r7, #12]
 442 0042 1B68     		ldr	r3, [r3]
 443 0044 22F40052 		bic	r2, r2, #8192
 444 0048 DA60     		str	r2, [r3, #12]
 631:./Drivers/STM32F1xx_HAL_Driver/Src/stm32f1xx_hal_uart.c **** 
 632:./Drivers/STM32F1xx_HAL_Driver/Src/stm32f1xx_hal_uart.c ****   /* Set the UART Communication parameters */
 633:./Drivers/STM32F1xx_HAL_Driver/Src/stm32f1xx_hal_uart.c ****   UART_SetConfig(huart);
 445              		.loc 1 633 3
 446 004a F868     		ldr	r0, [r7, #12]
 447 004c FFF7FEFF 		bl	UART_SetConfig
 634:./Drivers/STM32F1xx_HAL_Driver/Src/stm32f1xx_hal_uart.c **** 
 635:./Drivers/STM32F1xx_HAL_Driver/Src/stm32f1xx_hal_uart.c ****   /* In Multi-Processor mode, the following bits must be kept cleared:
 636:./Drivers/STM32F1xx_HAL_Driver/Src/stm32f1xx_hal_uart.c ****      - LINEN and CLKEN bits in the USART_CR2 register,
 637:./Drivers/STM32F1xx_HAL_Driver/Src/stm32f1xx_hal_uart.c ****      - SCEN, HDSEL and IREN  bits in the USART_CR3 register */
 638:./Drivers/STM32F1xx_HAL_Driver/Src/stm32f1xx_hal_uart.c ****   CLEAR_BIT(huart->Instance->CR2, (USART_CR2_LINEN | USART_CR2_CLKEN));
 448              		.loc 1 638 3
 449 0050 FB68     		ldr	r3, [r7, #12]
 450 0052 1B68     		ldr	r3, [r3]
 451 0054 1A69     		ldr	r2, [r3, #16]
 452 0056 FB68     		ldr	r3, [r7, #12]
ARM GAS  C:\Users\nguye\AppData\Local\Temp\ccUjla8d.s 			page 20


 453 0058 1B68     		ldr	r3, [r3]
 454 005a 22F49042 		bic	r2, r2, #18432
 455 005e 1A61     		str	r2, [r3, #16]
 639:./Drivers/STM32F1xx_HAL_Driver/Src/stm32f1xx_hal_uart.c ****   CLEAR_BIT(huart->Instance->CR3, (USART_CR3_SCEN | USART_CR3_HDSEL | USART_CR3_IREN));
 456              		.loc 1 639 3
 457 0060 FB68     		ldr	r3, [r7, #12]
 458 0062 1B68     		ldr	r3, [r3]
 459 0064 5A69     		ldr	r2, [r3, #20]
 460 0066 FB68     		ldr	r3, [r7, #12]
 461 0068 1B68     		ldr	r3, [r3]
 462 006a 22F02A02 		bic	r2, r2, #42
 463 006e 5A61     		str	r2, [r3, #20]
 640:./Drivers/STM32F1xx_HAL_Driver/Src/stm32f1xx_hal_uart.c **** 
 641:./Drivers/STM32F1xx_HAL_Driver/Src/stm32f1xx_hal_uart.c ****   /* Set the USART address node */
 642:./Drivers/STM32F1xx_HAL_Driver/Src/stm32f1xx_hal_uart.c ****   CLEAR_BIT(huart->Instance->CR2, USART_CR2_ADD);
 464              		.loc 1 642 3
 465 0070 FB68     		ldr	r3, [r7, #12]
 466 0072 1B68     		ldr	r3, [r3]
 467 0074 1A69     		ldr	r2, [r3, #16]
 468 0076 FB68     		ldr	r3, [r7, #12]
 469 0078 1B68     		ldr	r3, [r3]
 470 007a 22F00F02 		bic	r2, r2, #15
 471 007e 1A61     		str	r2, [r3, #16]
 643:./Drivers/STM32F1xx_HAL_Driver/Src/stm32f1xx_hal_uart.c ****   SET_BIT(huart->Instance->CR2, Address);
 472              		.loc 1 643 3
 473 0080 FB68     		ldr	r3, [r7, #12]
 474 0082 1B68     		ldr	r3, [r3]
 475 0084 1969     		ldr	r1, [r3, #16]
 476 0086 FA7A     		ldrb	r2, [r7, #11]	@ zero_extendqisi2
 477 0088 FB68     		ldr	r3, [r7, #12]
 478 008a 1B68     		ldr	r3, [r3]
 479 008c 0A43     		orrs	r2, r2, r1
 480 008e 1A61     		str	r2, [r3, #16]
 644:./Drivers/STM32F1xx_HAL_Driver/Src/stm32f1xx_hal_uart.c **** 
 645:./Drivers/STM32F1xx_HAL_Driver/Src/stm32f1xx_hal_uart.c ****   /* Set the wake up method by setting the WAKE bit in the CR1 register */
 646:./Drivers/STM32F1xx_HAL_Driver/Src/stm32f1xx_hal_uart.c ****   CLEAR_BIT(huart->Instance->CR1, USART_CR1_WAKE);
 481              		.loc 1 646 3
 482 0090 FB68     		ldr	r3, [r7, #12]
 483 0092 1B68     		ldr	r3, [r3]
 484 0094 DA68     		ldr	r2, [r3, #12]
 485 0096 FB68     		ldr	r3, [r7, #12]
 486 0098 1B68     		ldr	r3, [r3]
 487 009a 22F40062 		bic	r2, r2, #2048
 488 009e DA60     		str	r2, [r3, #12]
 647:./Drivers/STM32F1xx_HAL_Driver/Src/stm32f1xx_hal_uart.c ****   SET_BIT(huart->Instance->CR1, WakeUpMethod);
 489              		.loc 1 647 3
 490 00a0 FB68     		ldr	r3, [r7, #12]
 491 00a2 1B68     		ldr	r3, [r3]
 492 00a4 D968     		ldr	r1, [r3, #12]
 493 00a6 FB68     		ldr	r3, [r7, #12]
 494 00a8 1B68     		ldr	r3, [r3]
 495 00aa 7A68     		ldr	r2, [r7, #4]
 496 00ac 0A43     		orrs	r2, r2, r1
 497 00ae DA60     		str	r2, [r3, #12]
 648:./Drivers/STM32F1xx_HAL_Driver/Src/stm32f1xx_hal_uart.c **** 
 649:./Drivers/STM32F1xx_HAL_Driver/Src/stm32f1xx_hal_uart.c ****   /* Enable the peripheral */
 650:./Drivers/STM32F1xx_HAL_Driver/Src/stm32f1xx_hal_uart.c ****   __HAL_UART_ENABLE(huart);
ARM GAS  C:\Users\nguye\AppData\Local\Temp\ccUjla8d.s 			page 21


 498              		.loc 1 650 3
 499 00b0 FB68     		ldr	r3, [r7, #12]
 500 00b2 1B68     		ldr	r3, [r3]
 501 00b4 DA68     		ldr	r2, [r3, #12]
 502 00b6 FB68     		ldr	r3, [r7, #12]
 503 00b8 1B68     		ldr	r3, [r3]
 504 00ba 42F40052 		orr	r2, r2, #8192
 505 00be DA60     		str	r2, [r3, #12]
 651:./Drivers/STM32F1xx_HAL_Driver/Src/stm32f1xx_hal_uart.c **** 
 652:./Drivers/STM32F1xx_HAL_Driver/Src/stm32f1xx_hal_uart.c ****   /* Initialize the UART state */
 653:./Drivers/STM32F1xx_HAL_Driver/Src/stm32f1xx_hal_uart.c ****   huart->ErrorCode = HAL_UART_ERROR_NONE;
 506              		.loc 1 653 20
 507 00c0 FB68     		ldr	r3, [r7, #12]
 508 00c2 0022     		movs	r2, #0
 509 00c4 1A64     		str	r2, [r3, #64]
 654:./Drivers/STM32F1xx_HAL_Driver/Src/stm32f1xx_hal_uart.c ****   huart->gState = HAL_UART_STATE_READY;
 510              		.loc 1 654 17
 511 00c6 FB68     		ldr	r3, [r7, #12]
 512 00c8 2022     		movs	r2, #32
 513 00ca 83F83D20 		strb	r2, [r3, #61]
 655:./Drivers/STM32F1xx_HAL_Driver/Src/stm32f1xx_hal_uart.c ****   huart->RxState = HAL_UART_STATE_READY;
 514              		.loc 1 655 18
 515 00ce FB68     		ldr	r3, [r7, #12]
 516 00d0 2022     		movs	r2, #32
 517 00d2 83F83E20 		strb	r2, [r3, #62]
 656:./Drivers/STM32F1xx_HAL_Driver/Src/stm32f1xx_hal_uart.c **** 
 657:./Drivers/STM32F1xx_HAL_Driver/Src/stm32f1xx_hal_uart.c ****   return HAL_OK;
 518              		.loc 1 657 10
 519 00d6 0023     		movs	r3, #0
 520              	.L15:
 658:./Drivers/STM32F1xx_HAL_Driver/Src/stm32f1xx_hal_uart.c **** }
 521              		.loc 1 658 1
 522 00d8 1846     		mov	r0, r3
 523 00da 1037     		adds	r7, r7, #16
 524              		.cfi_def_cfa_offset 8
 525 00dc BD46     		mov	sp, r7
 526              		.cfi_def_cfa_register 13
 527              		@ sp needed
 528 00de 80BD     		pop	{r7, pc}
 529              		.cfi_endproc
 530              	.LFE68:
 532              		.section	.text.HAL_UART_DeInit,"ax",%progbits
 533              		.align	1
 534              		.global	HAL_UART_DeInit
 535              		.syntax unified
 536              		.thumb
 537              		.thumb_func
 538              		.fpu softvfp
 540              	HAL_UART_DeInit:
 541              	.LFB69:
 659:./Drivers/STM32F1xx_HAL_Driver/Src/stm32f1xx_hal_uart.c **** 
 660:./Drivers/STM32F1xx_HAL_Driver/Src/stm32f1xx_hal_uart.c **** /**
 661:./Drivers/STM32F1xx_HAL_Driver/Src/stm32f1xx_hal_uart.c ****   * @brief  DeInitializes the UART peripheral.
 662:./Drivers/STM32F1xx_HAL_Driver/Src/stm32f1xx_hal_uart.c ****   * @param  huart  Pointer to a UART_HandleTypeDef structure that contains
 663:./Drivers/STM32F1xx_HAL_Driver/Src/stm32f1xx_hal_uart.c ****   *                the configuration information for the specified UART module.
 664:./Drivers/STM32F1xx_HAL_Driver/Src/stm32f1xx_hal_uart.c ****   * @retval HAL status
 665:./Drivers/STM32F1xx_HAL_Driver/Src/stm32f1xx_hal_uart.c ****   */
ARM GAS  C:\Users\nguye\AppData\Local\Temp\ccUjla8d.s 			page 22


 666:./Drivers/STM32F1xx_HAL_Driver/Src/stm32f1xx_hal_uart.c **** HAL_StatusTypeDef HAL_UART_DeInit(UART_HandleTypeDef *huart)
 667:./Drivers/STM32F1xx_HAL_Driver/Src/stm32f1xx_hal_uart.c **** {
 542              		.loc 1 667 1
 543              		.cfi_startproc
 544              		@ args = 0, pretend = 0, frame = 8
 545              		@ frame_needed = 1, uses_anonymous_args = 0
 546 0000 80B5     		push	{r7, lr}
 547              		.cfi_def_cfa_offset 8
 548              		.cfi_offset 7, -8
 549              		.cfi_offset 14, -4
 550 0002 82B0     		sub	sp, sp, #8
 551              		.cfi_def_cfa_offset 16
 552 0004 00AF     		add	r7, sp, #0
 553              		.cfi_def_cfa_register 7
 554 0006 7860     		str	r0, [r7, #4]
 668:./Drivers/STM32F1xx_HAL_Driver/Src/stm32f1xx_hal_uart.c ****   /* Check the UART handle allocation */
 669:./Drivers/STM32F1xx_HAL_Driver/Src/stm32f1xx_hal_uart.c ****   if (huart == NULL)
 555              		.loc 1 669 6
 556 0008 7B68     		ldr	r3, [r7, #4]
 557 000a 002B     		cmp	r3, #0
 558 000c 01D1     		bne	.L18
 670:./Drivers/STM32F1xx_HAL_Driver/Src/stm32f1xx_hal_uart.c ****   {
 671:./Drivers/STM32F1xx_HAL_Driver/Src/stm32f1xx_hal_uart.c ****     return HAL_ERROR;
 559              		.loc 1 671 12
 560 000e 0123     		movs	r3, #1
 561 0010 21E0     		b	.L19
 562              	.L18:
 672:./Drivers/STM32F1xx_HAL_Driver/Src/stm32f1xx_hal_uart.c ****   }
 673:./Drivers/STM32F1xx_HAL_Driver/Src/stm32f1xx_hal_uart.c **** 
 674:./Drivers/STM32F1xx_HAL_Driver/Src/stm32f1xx_hal_uart.c ****   /* Check the parameters */
 675:./Drivers/STM32F1xx_HAL_Driver/Src/stm32f1xx_hal_uart.c ****   assert_param(IS_UART_INSTANCE(huart->Instance));
 676:./Drivers/STM32F1xx_HAL_Driver/Src/stm32f1xx_hal_uart.c **** 
 677:./Drivers/STM32F1xx_HAL_Driver/Src/stm32f1xx_hal_uart.c ****   huart->gState = HAL_UART_STATE_BUSY;
 563              		.loc 1 677 17
 564 0012 7B68     		ldr	r3, [r7, #4]
 565 0014 2422     		movs	r2, #36
 566 0016 83F83D20 		strb	r2, [r3, #61]
 678:./Drivers/STM32F1xx_HAL_Driver/Src/stm32f1xx_hal_uart.c **** 
 679:./Drivers/STM32F1xx_HAL_Driver/Src/stm32f1xx_hal_uart.c ****   /* Disable the Peripheral */
 680:./Drivers/STM32F1xx_HAL_Driver/Src/stm32f1xx_hal_uart.c ****   __HAL_UART_DISABLE(huart);
 567              		.loc 1 680 3
 568 001a 7B68     		ldr	r3, [r7, #4]
 569 001c 1B68     		ldr	r3, [r3]
 570 001e DA68     		ldr	r2, [r3, #12]
 571 0020 7B68     		ldr	r3, [r7, #4]
 572 0022 1B68     		ldr	r3, [r3]
 573 0024 22F40052 		bic	r2, r2, #8192
 574 0028 DA60     		str	r2, [r3, #12]
 681:./Drivers/STM32F1xx_HAL_Driver/Src/stm32f1xx_hal_uart.c **** 
 682:./Drivers/STM32F1xx_HAL_Driver/Src/stm32f1xx_hal_uart.c **** #if (USE_HAL_UART_REGISTER_CALLBACKS == 1)
 683:./Drivers/STM32F1xx_HAL_Driver/Src/stm32f1xx_hal_uart.c ****   if (huart->MspDeInitCallback == NULL)
 684:./Drivers/STM32F1xx_HAL_Driver/Src/stm32f1xx_hal_uart.c ****   {
 685:./Drivers/STM32F1xx_HAL_Driver/Src/stm32f1xx_hal_uart.c ****     huart->MspDeInitCallback = HAL_UART_MspDeInit;
 686:./Drivers/STM32F1xx_HAL_Driver/Src/stm32f1xx_hal_uart.c ****   }
 687:./Drivers/STM32F1xx_HAL_Driver/Src/stm32f1xx_hal_uart.c ****   /* DeInit the low level hardware */
 688:./Drivers/STM32F1xx_HAL_Driver/Src/stm32f1xx_hal_uart.c ****   huart->MspDeInitCallback(huart);
 689:./Drivers/STM32F1xx_HAL_Driver/Src/stm32f1xx_hal_uart.c **** #else
ARM GAS  C:\Users\nguye\AppData\Local\Temp\ccUjla8d.s 			page 23


 690:./Drivers/STM32F1xx_HAL_Driver/Src/stm32f1xx_hal_uart.c ****   /* DeInit the low level hardware */
 691:./Drivers/STM32F1xx_HAL_Driver/Src/stm32f1xx_hal_uart.c ****   HAL_UART_MspDeInit(huart);
 575              		.loc 1 691 3
 576 002a 7868     		ldr	r0, [r7, #4]
 577 002c FFF7FEFF 		bl	HAL_UART_MspDeInit
 692:./Drivers/STM32F1xx_HAL_Driver/Src/stm32f1xx_hal_uart.c **** #endif /* (USE_HAL_UART_REGISTER_CALLBACKS) */
 693:./Drivers/STM32F1xx_HAL_Driver/Src/stm32f1xx_hal_uart.c **** 
 694:./Drivers/STM32F1xx_HAL_Driver/Src/stm32f1xx_hal_uart.c ****   huart->ErrorCode = HAL_UART_ERROR_NONE;
 578              		.loc 1 694 20
 579 0030 7B68     		ldr	r3, [r7, #4]
 580 0032 0022     		movs	r2, #0
 581 0034 1A64     		str	r2, [r3, #64]
 695:./Drivers/STM32F1xx_HAL_Driver/Src/stm32f1xx_hal_uart.c ****   huart->gState = HAL_UART_STATE_RESET;
 582              		.loc 1 695 17
 583 0036 7B68     		ldr	r3, [r7, #4]
 584 0038 0022     		movs	r2, #0
 585 003a 83F83D20 		strb	r2, [r3, #61]
 696:./Drivers/STM32F1xx_HAL_Driver/Src/stm32f1xx_hal_uart.c ****   huart->RxState = HAL_UART_STATE_RESET;
 586              		.loc 1 696 18
 587 003e 7B68     		ldr	r3, [r7, #4]
 588 0040 0022     		movs	r2, #0
 589 0042 83F83E20 		strb	r2, [r3, #62]
 697:./Drivers/STM32F1xx_HAL_Driver/Src/stm32f1xx_hal_uart.c ****   huart->ReceptionType = HAL_UART_RECEPTION_STANDARD;
 590              		.loc 1 697 24
 591 0046 7B68     		ldr	r3, [r7, #4]
 592 0048 0022     		movs	r2, #0
 593 004a 1A63     		str	r2, [r3, #48]
 698:./Drivers/STM32F1xx_HAL_Driver/Src/stm32f1xx_hal_uart.c **** 
 699:./Drivers/STM32F1xx_HAL_Driver/Src/stm32f1xx_hal_uart.c ****   /* Process Unlock */
 700:./Drivers/STM32F1xx_HAL_Driver/Src/stm32f1xx_hal_uart.c ****   __HAL_UNLOCK(huart);
 594              		.loc 1 700 3
 595 004c 7B68     		ldr	r3, [r7, #4]
 596 004e 0022     		movs	r2, #0
 597 0050 83F83C20 		strb	r2, [r3, #60]
 701:./Drivers/STM32F1xx_HAL_Driver/Src/stm32f1xx_hal_uart.c **** 
 702:./Drivers/STM32F1xx_HAL_Driver/Src/stm32f1xx_hal_uart.c ****   return HAL_OK;
 598              		.loc 1 702 10
 599 0054 0023     		movs	r3, #0
 600              	.L19:
 703:./Drivers/STM32F1xx_HAL_Driver/Src/stm32f1xx_hal_uart.c **** }
 601              		.loc 1 703 1
 602 0056 1846     		mov	r0, r3
 603 0058 0837     		adds	r7, r7, #8
 604              		.cfi_def_cfa_offset 8
 605 005a BD46     		mov	sp, r7
 606              		.cfi_def_cfa_register 13
 607              		@ sp needed
 608 005c 80BD     		pop	{r7, pc}
 609              		.cfi_endproc
 610              	.LFE69:
 612              		.section	.text.HAL_UART_MspInit,"ax",%progbits
 613              		.align	1
 614              		.weak	HAL_UART_MspInit
 615              		.syntax unified
 616              		.thumb
 617              		.thumb_func
 618              		.fpu softvfp
ARM GAS  C:\Users\nguye\AppData\Local\Temp\ccUjla8d.s 			page 24


 620              	HAL_UART_MspInit:
 621              	.LFB70:
 704:./Drivers/STM32F1xx_HAL_Driver/Src/stm32f1xx_hal_uart.c **** 
 705:./Drivers/STM32F1xx_HAL_Driver/Src/stm32f1xx_hal_uart.c **** /**
 706:./Drivers/STM32F1xx_HAL_Driver/Src/stm32f1xx_hal_uart.c ****   * @brief  UART MSP Init.
 707:./Drivers/STM32F1xx_HAL_Driver/Src/stm32f1xx_hal_uart.c ****   * @param  huart  Pointer to a UART_HandleTypeDef structure that contains
 708:./Drivers/STM32F1xx_HAL_Driver/Src/stm32f1xx_hal_uart.c ****   *                the configuration information for the specified UART module.
 709:./Drivers/STM32F1xx_HAL_Driver/Src/stm32f1xx_hal_uart.c ****   * @retval None
 710:./Drivers/STM32F1xx_HAL_Driver/Src/stm32f1xx_hal_uart.c ****   */
 711:./Drivers/STM32F1xx_HAL_Driver/Src/stm32f1xx_hal_uart.c **** __weak void HAL_UART_MspInit(UART_HandleTypeDef *huart)
 712:./Drivers/STM32F1xx_HAL_Driver/Src/stm32f1xx_hal_uart.c **** {
 622              		.loc 1 712 1
 623              		.cfi_startproc
 624              		@ args = 0, pretend = 0, frame = 8
 625              		@ frame_needed = 1, uses_anonymous_args = 0
 626              		@ link register save eliminated.
 627 0000 80B4     		push	{r7}
 628              		.cfi_def_cfa_offset 4
 629              		.cfi_offset 7, -4
 630 0002 83B0     		sub	sp, sp, #12
 631              		.cfi_def_cfa_offset 16
 632 0004 00AF     		add	r7, sp, #0
 633              		.cfi_def_cfa_register 7
 634 0006 7860     		str	r0, [r7, #4]
 713:./Drivers/STM32F1xx_HAL_Driver/Src/stm32f1xx_hal_uart.c ****   /* Prevent unused argument(s) compilation warning */
 714:./Drivers/STM32F1xx_HAL_Driver/Src/stm32f1xx_hal_uart.c ****   UNUSED(huart);
 715:./Drivers/STM32F1xx_HAL_Driver/Src/stm32f1xx_hal_uart.c ****   /* NOTE: This function should not be modified, when the callback is needed,
 716:./Drivers/STM32F1xx_HAL_Driver/Src/stm32f1xx_hal_uart.c ****            the HAL_UART_MspInit could be implemented in the user file
 717:./Drivers/STM32F1xx_HAL_Driver/Src/stm32f1xx_hal_uart.c ****    */
 718:./Drivers/STM32F1xx_HAL_Driver/Src/stm32f1xx_hal_uart.c **** }
 635              		.loc 1 718 1
 636 0008 00BF     		nop
 637 000a 0C37     		adds	r7, r7, #12
 638              		.cfi_def_cfa_offset 4
 639 000c BD46     		mov	sp, r7
 640              		.cfi_def_cfa_register 13
 641              		@ sp needed
 642 000e 80BC     		pop	{r7}
 643              		.cfi_restore 7
 644              		.cfi_def_cfa_offset 0
 645 0010 7047     		bx	lr
 646              		.cfi_endproc
 647              	.LFE70:
 649              		.section	.text.HAL_UART_MspDeInit,"ax",%progbits
 650              		.align	1
 651              		.weak	HAL_UART_MspDeInit
 652              		.syntax unified
 653              		.thumb
 654              		.thumb_func
 655              		.fpu softvfp
 657              	HAL_UART_MspDeInit:
 658              	.LFB71:
 719:./Drivers/STM32F1xx_HAL_Driver/Src/stm32f1xx_hal_uart.c **** 
 720:./Drivers/STM32F1xx_HAL_Driver/Src/stm32f1xx_hal_uart.c **** /**
 721:./Drivers/STM32F1xx_HAL_Driver/Src/stm32f1xx_hal_uart.c ****   * @brief  UART MSP DeInit.
 722:./Drivers/STM32F1xx_HAL_Driver/Src/stm32f1xx_hal_uart.c ****   * @param  huart  Pointer to a UART_HandleTypeDef structure that contains
 723:./Drivers/STM32F1xx_HAL_Driver/Src/stm32f1xx_hal_uart.c ****   *                the configuration information for the specified UART module.
ARM GAS  C:\Users\nguye\AppData\Local\Temp\ccUjla8d.s 			page 25


 724:./Drivers/STM32F1xx_HAL_Driver/Src/stm32f1xx_hal_uart.c ****   * @retval None
 725:./Drivers/STM32F1xx_HAL_Driver/Src/stm32f1xx_hal_uart.c ****   */
 726:./Drivers/STM32F1xx_HAL_Driver/Src/stm32f1xx_hal_uart.c **** __weak void HAL_UART_MspDeInit(UART_HandleTypeDef *huart)
 727:./Drivers/STM32F1xx_HAL_Driver/Src/stm32f1xx_hal_uart.c **** {
 659              		.loc 1 727 1
 660              		.cfi_startproc
 661              		@ args = 0, pretend = 0, frame = 8
 662              		@ frame_needed = 1, uses_anonymous_args = 0
 663              		@ link register save eliminated.
 664 0000 80B4     		push	{r7}
 665              		.cfi_def_cfa_offset 4
 666              		.cfi_offset 7, -4
 667 0002 83B0     		sub	sp, sp, #12
 668              		.cfi_def_cfa_offset 16
 669 0004 00AF     		add	r7, sp, #0
 670              		.cfi_def_cfa_register 7
 671 0006 7860     		str	r0, [r7, #4]
 728:./Drivers/STM32F1xx_HAL_Driver/Src/stm32f1xx_hal_uart.c ****   /* Prevent unused argument(s) compilation warning */
 729:./Drivers/STM32F1xx_HAL_Driver/Src/stm32f1xx_hal_uart.c ****   UNUSED(huart);
 730:./Drivers/STM32F1xx_HAL_Driver/Src/stm32f1xx_hal_uart.c ****   /* NOTE: This function should not be modified, when the callback is needed,
 731:./Drivers/STM32F1xx_HAL_Driver/Src/stm32f1xx_hal_uart.c ****            the HAL_UART_MspDeInit could be implemented in the user file
 732:./Drivers/STM32F1xx_HAL_Driver/Src/stm32f1xx_hal_uart.c ****    */
 733:./Drivers/STM32F1xx_HAL_Driver/Src/stm32f1xx_hal_uart.c **** }
 672              		.loc 1 733 1
 673 0008 00BF     		nop
 674 000a 0C37     		adds	r7, r7, #12
 675              		.cfi_def_cfa_offset 4
 676 000c BD46     		mov	sp, r7
 677              		.cfi_def_cfa_register 13
 678              		@ sp needed
 679 000e 80BC     		pop	{r7}
 680              		.cfi_restore 7
 681              		.cfi_def_cfa_offset 0
 682 0010 7047     		bx	lr
 683              		.cfi_endproc
 684              	.LFE71:
 686              		.section	.text.HAL_UART_Transmit,"ax",%progbits
 687              		.align	1
 688              		.global	HAL_UART_Transmit
 689              		.syntax unified
 690              		.thumb
 691              		.thumb_func
 692              		.fpu softvfp
 694              	HAL_UART_Transmit:
 695              	.LFB72:
 734:./Drivers/STM32F1xx_HAL_Driver/Src/stm32f1xx_hal_uart.c **** 
 735:./Drivers/STM32F1xx_HAL_Driver/Src/stm32f1xx_hal_uart.c **** #if (USE_HAL_UART_REGISTER_CALLBACKS == 1)
 736:./Drivers/STM32F1xx_HAL_Driver/Src/stm32f1xx_hal_uart.c **** /**
 737:./Drivers/STM32F1xx_HAL_Driver/Src/stm32f1xx_hal_uart.c ****   * @brief  Register a User UART Callback
 738:./Drivers/STM32F1xx_HAL_Driver/Src/stm32f1xx_hal_uart.c ****   *         To be used instead of the weak predefined callback
 739:./Drivers/STM32F1xx_HAL_Driver/Src/stm32f1xx_hal_uart.c ****   * @param  huart uart handle
 740:./Drivers/STM32F1xx_HAL_Driver/Src/stm32f1xx_hal_uart.c ****   * @param  CallbackID ID of the callback to be registered
 741:./Drivers/STM32F1xx_HAL_Driver/Src/stm32f1xx_hal_uart.c ****   *         This parameter can be one of the following values:
 742:./Drivers/STM32F1xx_HAL_Driver/Src/stm32f1xx_hal_uart.c ****   *           @arg @ref HAL_UART_TX_HALFCOMPLETE_CB_ID Tx Half Complete Callback ID
 743:./Drivers/STM32F1xx_HAL_Driver/Src/stm32f1xx_hal_uart.c ****   *           @arg @ref HAL_UART_TX_COMPLETE_CB_ID Tx Complete Callback ID
 744:./Drivers/STM32F1xx_HAL_Driver/Src/stm32f1xx_hal_uart.c ****   *           @arg @ref HAL_UART_RX_HALFCOMPLETE_CB_ID Rx Half Complete Callback ID
 745:./Drivers/STM32F1xx_HAL_Driver/Src/stm32f1xx_hal_uart.c ****   *           @arg @ref HAL_UART_RX_COMPLETE_CB_ID Rx Complete Callback ID
ARM GAS  C:\Users\nguye\AppData\Local\Temp\ccUjla8d.s 			page 26


 746:./Drivers/STM32F1xx_HAL_Driver/Src/stm32f1xx_hal_uart.c ****   *           @arg @ref HAL_UART_ERROR_CB_ID Error Callback ID
 747:./Drivers/STM32F1xx_HAL_Driver/Src/stm32f1xx_hal_uart.c ****   *           @arg @ref HAL_UART_ABORT_COMPLETE_CB_ID Abort Complete Callback ID
 748:./Drivers/STM32F1xx_HAL_Driver/Src/stm32f1xx_hal_uart.c ****   *           @arg @ref HAL_UART_ABORT_TRANSMIT_COMPLETE_CB_ID Abort Transmit Complete Callback ID
 749:./Drivers/STM32F1xx_HAL_Driver/Src/stm32f1xx_hal_uart.c ****   *           @arg @ref HAL_UART_ABORT_RECEIVE_COMPLETE_CB_ID Abort Receive Complete Callback ID
 750:./Drivers/STM32F1xx_HAL_Driver/Src/stm32f1xx_hal_uart.c ****   *           @arg @ref HAL_UART_MSPINIT_CB_ID MspInit Callback ID
 751:./Drivers/STM32F1xx_HAL_Driver/Src/stm32f1xx_hal_uart.c ****   *           @arg @ref HAL_UART_MSPDEINIT_CB_ID MspDeInit Callback ID
 752:./Drivers/STM32F1xx_HAL_Driver/Src/stm32f1xx_hal_uart.c ****   * @param  pCallback pointer to the Callback function
 753:./Drivers/STM32F1xx_HAL_Driver/Src/stm32f1xx_hal_uart.c ****   * @retval HAL status
 754:./Drivers/STM32F1xx_HAL_Driver/Src/stm32f1xx_hal_uart.c ****   */
 755:./Drivers/STM32F1xx_HAL_Driver/Src/stm32f1xx_hal_uart.c **** HAL_StatusTypeDef HAL_UART_RegisterCallback(UART_HandleTypeDef *huart, HAL_UART_CallbackIDTypeDef C
 756:./Drivers/STM32F1xx_HAL_Driver/Src/stm32f1xx_hal_uart.c **** {
 757:./Drivers/STM32F1xx_HAL_Driver/Src/stm32f1xx_hal_uart.c ****   HAL_StatusTypeDef status = HAL_OK;
 758:./Drivers/STM32F1xx_HAL_Driver/Src/stm32f1xx_hal_uart.c **** 
 759:./Drivers/STM32F1xx_HAL_Driver/Src/stm32f1xx_hal_uart.c ****   if (pCallback == NULL)
 760:./Drivers/STM32F1xx_HAL_Driver/Src/stm32f1xx_hal_uart.c ****   {
 761:./Drivers/STM32F1xx_HAL_Driver/Src/stm32f1xx_hal_uart.c ****     /* Update the error code */
 762:./Drivers/STM32F1xx_HAL_Driver/Src/stm32f1xx_hal_uart.c ****     huart->ErrorCode |= HAL_UART_ERROR_INVALID_CALLBACK;
 763:./Drivers/STM32F1xx_HAL_Driver/Src/stm32f1xx_hal_uart.c **** 
 764:./Drivers/STM32F1xx_HAL_Driver/Src/stm32f1xx_hal_uart.c ****     return HAL_ERROR;
 765:./Drivers/STM32F1xx_HAL_Driver/Src/stm32f1xx_hal_uart.c ****   }
 766:./Drivers/STM32F1xx_HAL_Driver/Src/stm32f1xx_hal_uart.c ****   /* Process locked */
 767:./Drivers/STM32F1xx_HAL_Driver/Src/stm32f1xx_hal_uart.c ****   __HAL_LOCK(huart);
 768:./Drivers/STM32F1xx_HAL_Driver/Src/stm32f1xx_hal_uart.c **** 
 769:./Drivers/STM32F1xx_HAL_Driver/Src/stm32f1xx_hal_uart.c ****   if (huart->gState == HAL_UART_STATE_READY)
 770:./Drivers/STM32F1xx_HAL_Driver/Src/stm32f1xx_hal_uart.c ****   {
 771:./Drivers/STM32F1xx_HAL_Driver/Src/stm32f1xx_hal_uart.c ****     switch (CallbackID)
 772:./Drivers/STM32F1xx_HAL_Driver/Src/stm32f1xx_hal_uart.c ****     {
 773:./Drivers/STM32F1xx_HAL_Driver/Src/stm32f1xx_hal_uart.c ****       case HAL_UART_TX_HALFCOMPLETE_CB_ID :
 774:./Drivers/STM32F1xx_HAL_Driver/Src/stm32f1xx_hal_uart.c ****         huart->TxHalfCpltCallback = pCallback;
 775:./Drivers/STM32F1xx_HAL_Driver/Src/stm32f1xx_hal_uart.c ****         break;
 776:./Drivers/STM32F1xx_HAL_Driver/Src/stm32f1xx_hal_uart.c **** 
 777:./Drivers/STM32F1xx_HAL_Driver/Src/stm32f1xx_hal_uart.c ****       case HAL_UART_TX_COMPLETE_CB_ID :
 778:./Drivers/STM32F1xx_HAL_Driver/Src/stm32f1xx_hal_uart.c ****         huart->TxCpltCallback = pCallback;
 779:./Drivers/STM32F1xx_HAL_Driver/Src/stm32f1xx_hal_uart.c ****         break;
 780:./Drivers/STM32F1xx_HAL_Driver/Src/stm32f1xx_hal_uart.c **** 
 781:./Drivers/STM32F1xx_HAL_Driver/Src/stm32f1xx_hal_uart.c ****       case HAL_UART_RX_HALFCOMPLETE_CB_ID :
 782:./Drivers/STM32F1xx_HAL_Driver/Src/stm32f1xx_hal_uart.c ****         huart->RxHalfCpltCallback = pCallback;
 783:./Drivers/STM32F1xx_HAL_Driver/Src/stm32f1xx_hal_uart.c ****         break;
 784:./Drivers/STM32F1xx_HAL_Driver/Src/stm32f1xx_hal_uart.c **** 
 785:./Drivers/STM32F1xx_HAL_Driver/Src/stm32f1xx_hal_uart.c ****       case HAL_UART_RX_COMPLETE_CB_ID :
 786:./Drivers/STM32F1xx_HAL_Driver/Src/stm32f1xx_hal_uart.c ****         huart->RxCpltCallback = pCallback;
 787:./Drivers/STM32F1xx_HAL_Driver/Src/stm32f1xx_hal_uart.c ****         break;
 788:./Drivers/STM32F1xx_HAL_Driver/Src/stm32f1xx_hal_uart.c **** 
 789:./Drivers/STM32F1xx_HAL_Driver/Src/stm32f1xx_hal_uart.c ****       case HAL_UART_ERROR_CB_ID :
 790:./Drivers/STM32F1xx_HAL_Driver/Src/stm32f1xx_hal_uart.c ****         huart->ErrorCallback = pCallback;
 791:./Drivers/STM32F1xx_HAL_Driver/Src/stm32f1xx_hal_uart.c ****         break;
 792:./Drivers/STM32F1xx_HAL_Driver/Src/stm32f1xx_hal_uart.c **** 
 793:./Drivers/STM32F1xx_HAL_Driver/Src/stm32f1xx_hal_uart.c ****       case HAL_UART_ABORT_COMPLETE_CB_ID :
 794:./Drivers/STM32F1xx_HAL_Driver/Src/stm32f1xx_hal_uart.c ****         huart->AbortCpltCallback = pCallback;
 795:./Drivers/STM32F1xx_HAL_Driver/Src/stm32f1xx_hal_uart.c ****         break;
 796:./Drivers/STM32F1xx_HAL_Driver/Src/stm32f1xx_hal_uart.c **** 
 797:./Drivers/STM32F1xx_HAL_Driver/Src/stm32f1xx_hal_uart.c ****       case HAL_UART_ABORT_TRANSMIT_COMPLETE_CB_ID :
 798:./Drivers/STM32F1xx_HAL_Driver/Src/stm32f1xx_hal_uart.c ****         huart->AbortTransmitCpltCallback = pCallback;
 799:./Drivers/STM32F1xx_HAL_Driver/Src/stm32f1xx_hal_uart.c ****         break;
 800:./Drivers/STM32F1xx_HAL_Driver/Src/stm32f1xx_hal_uart.c **** 
 801:./Drivers/STM32F1xx_HAL_Driver/Src/stm32f1xx_hal_uart.c ****       case HAL_UART_ABORT_RECEIVE_COMPLETE_CB_ID :
 802:./Drivers/STM32F1xx_HAL_Driver/Src/stm32f1xx_hal_uart.c ****         huart->AbortReceiveCpltCallback = pCallback;
ARM GAS  C:\Users\nguye\AppData\Local\Temp\ccUjla8d.s 			page 27


 803:./Drivers/STM32F1xx_HAL_Driver/Src/stm32f1xx_hal_uart.c ****         break;
 804:./Drivers/STM32F1xx_HAL_Driver/Src/stm32f1xx_hal_uart.c **** 
 805:./Drivers/STM32F1xx_HAL_Driver/Src/stm32f1xx_hal_uart.c ****       case HAL_UART_MSPINIT_CB_ID :
 806:./Drivers/STM32F1xx_HAL_Driver/Src/stm32f1xx_hal_uart.c ****         huart->MspInitCallback = pCallback;
 807:./Drivers/STM32F1xx_HAL_Driver/Src/stm32f1xx_hal_uart.c ****         break;
 808:./Drivers/STM32F1xx_HAL_Driver/Src/stm32f1xx_hal_uart.c **** 
 809:./Drivers/STM32F1xx_HAL_Driver/Src/stm32f1xx_hal_uart.c ****       case HAL_UART_MSPDEINIT_CB_ID :
 810:./Drivers/STM32F1xx_HAL_Driver/Src/stm32f1xx_hal_uart.c ****         huart->MspDeInitCallback = pCallback;
 811:./Drivers/STM32F1xx_HAL_Driver/Src/stm32f1xx_hal_uart.c ****         break;
 812:./Drivers/STM32F1xx_HAL_Driver/Src/stm32f1xx_hal_uart.c **** 
 813:./Drivers/STM32F1xx_HAL_Driver/Src/stm32f1xx_hal_uart.c ****       default :
 814:./Drivers/STM32F1xx_HAL_Driver/Src/stm32f1xx_hal_uart.c ****         /* Update the error code */
 815:./Drivers/STM32F1xx_HAL_Driver/Src/stm32f1xx_hal_uart.c ****         huart->ErrorCode |= HAL_UART_ERROR_INVALID_CALLBACK;
 816:./Drivers/STM32F1xx_HAL_Driver/Src/stm32f1xx_hal_uart.c **** 
 817:./Drivers/STM32F1xx_HAL_Driver/Src/stm32f1xx_hal_uart.c ****         /* Return error status */
 818:./Drivers/STM32F1xx_HAL_Driver/Src/stm32f1xx_hal_uart.c ****         status =  HAL_ERROR;
 819:./Drivers/STM32F1xx_HAL_Driver/Src/stm32f1xx_hal_uart.c ****         break;
 820:./Drivers/STM32F1xx_HAL_Driver/Src/stm32f1xx_hal_uart.c ****     }
 821:./Drivers/STM32F1xx_HAL_Driver/Src/stm32f1xx_hal_uart.c ****   }
 822:./Drivers/STM32F1xx_HAL_Driver/Src/stm32f1xx_hal_uart.c ****   else if (huart->gState == HAL_UART_STATE_RESET)
 823:./Drivers/STM32F1xx_HAL_Driver/Src/stm32f1xx_hal_uart.c ****   {
 824:./Drivers/STM32F1xx_HAL_Driver/Src/stm32f1xx_hal_uart.c ****     switch (CallbackID)
 825:./Drivers/STM32F1xx_HAL_Driver/Src/stm32f1xx_hal_uart.c ****     {
 826:./Drivers/STM32F1xx_HAL_Driver/Src/stm32f1xx_hal_uart.c ****       case HAL_UART_MSPINIT_CB_ID :
 827:./Drivers/STM32F1xx_HAL_Driver/Src/stm32f1xx_hal_uart.c ****         huart->MspInitCallback = pCallback;
 828:./Drivers/STM32F1xx_HAL_Driver/Src/stm32f1xx_hal_uart.c ****         break;
 829:./Drivers/STM32F1xx_HAL_Driver/Src/stm32f1xx_hal_uart.c **** 
 830:./Drivers/STM32F1xx_HAL_Driver/Src/stm32f1xx_hal_uart.c ****       case HAL_UART_MSPDEINIT_CB_ID :
 831:./Drivers/STM32F1xx_HAL_Driver/Src/stm32f1xx_hal_uart.c ****         huart->MspDeInitCallback = pCallback;
 832:./Drivers/STM32F1xx_HAL_Driver/Src/stm32f1xx_hal_uart.c ****         break;
 833:./Drivers/STM32F1xx_HAL_Driver/Src/stm32f1xx_hal_uart.c **** 
 834:./Drivers/STM32F1xx_HAL_Driver/Src/stm32f1xx_hal_uart.c ****       default :
 835:./Drivers/STM32F1xx_HAL_Driver/Src/stm32f1xx_hal_uart.c ****         /* Update the error code */
 836:./Drivers/STM32F1xx_HAL_Driver/Src/stm32f1xx_hal_uart.c ****         huart->ErrorCode |= HAL_UART_ERROR_INVALID_CALLBACK;
 837:./Drivers/STM32F1xx_HAL_Driver/Src/stm32f1xx_hal_uart.c **** 
 838:./Drivers/STM32F1xx_HAL_Driver/Src/stm32f1xx_hal_uart.c ****         /* Return error status */
 839:./Drivers/STM32F1xx_HAL_Driver/Src/stm32f1xx_hal_uart.c ****         status =  HAL_ERROR;
 840:./Drivers/STM32F1xx_HAL_Driver/Src/stm32f1xx_hal_uart.c ****         break;
 841:./Drivers/STM32F1xx_HAL_Driver/Src/stm32f1xx_hal_uart.c ****     }
 842:./Drivers/STM32F1xx_HAL_Driver/Src/stm32f1xx_hal_uart.c ****   }
 843:./Drivers/STM32F1xx_HAL_Driver/Src/stm32f1xx_hal_uart.c ****   else
 844:./Drivers/STM32F1xx_HAL_Driver/Src/stm32f1xx_hal_uart.c ****   {
 845:./Drivers/STM32F1xx_HAL_Driver/Src/stm32f1xx_hal_uart.c ****     /* Update the error code */
 846:./Drivers/STM32F1xx_HAL_Driver/Src/stm32f1xx_hal_uart.c ****     huart->ErrorCode |= HAL_UART_ERROR_INVALID_CALLBACK;
 847:./Drivers/STM32F1xx_HAL_Driver/Src/stm32f1xx_hal_uart.c **** 
 848:./Drivers/STM32F1xx_HAL_Driver/Src/stm32f1xx_hal_uart.c ****     /* Return error status */
 849:./Drivers/STM32F1xx_HAL_Driver/Src/stm32f1xx_hal_uart.c ****     status =  HAL_ERROR;
 850:./Drivers/STM32F1xx_HAL_Driver/Src/stm32f1xx_hal_uart.c ****   }
 851:./Drivers/STM32F1xx_HAL_Driver/Src/stm32f1xx_hal_uart.c **** 
 852:./Drivers/STM32F1xx_HAL_Driver/Src/stm32f1xx_hal_uart.c ****   /* Release Lock */
 853:./Drivers/STM32F1xx_HAL_Driver/Src/stm32f1xx_hal_uart.c ****   __HAL_UNLOCK(huart);
 854:./Drivers/STM32F1xx_HAL_Driver/Src/stm32f1xx_hal_uart.c **** 
 855:./Drivers/STM32F1xx_HAL_Driver/Src/stm32f1xx_hal_uart.c ****   return status;
 856:./Drivers/STM32F1xx_HAL_Driver/Src/stm32f1xx_hal_uart.c **** }
 857:./Drivers/STM32F1xx_HAL_Driver/Src/stm32f1xx_hal_uart.c **** 
 858:./Drivers/STM32F1xx_HAL_Driver/Src/stm32f1xx_hal_uart.c **** /**
 859:./Drivers/STM32F1xx_HAL_Driver/Src/stm32f1xx_hal_uart.c ****   * @brief  Unregister an UART Callback
ARM GAS  C:\Users\nguye\AppData\Local\Temp\ccUjla8d.s 			page 28


 860:./Drivers/STM32F1xx_HAL_Driver/Src/stm32f1xx_hal_uart.c ****   *         UART callaback is redirected to the weak predefined callback
 861:./Drivers/STM32F1xx_HAL_Driver/Src/stm32f1xx_hal_uart.c ****   * @param  huart uart handle
 862:./Drivers/STM32F1xx_HAL_Driver/Src/stm32f1xx_hal_uart.c ****   * @param  CallbackID ID of the callback to be unregistered
 863:./Drivers/STM32F1xx_HAL_Driver/Src/stm32f1xx_hal_uart.c ****   *         This parameter can be one of the following values:
 864:./Drivers/STM32F1xx_HAL_Driver/Src/stm32f1xx_hal_uart.c ****   *           @arg @ref HAL_UART_TX_HALFCOMPLETE_CB_ID Tx Half Complete Callback ID
 865:./Drivers/STM32F1xx_HAL_Driver/Src/stm32f1xx_hal_uart.c ****   *           @arg @ref HAL_UART_TX_COMPLETE_CB_ID Tx Complete Callback ID
 866:./Drivers/STM32F1xx_HAL_Driver/Src/stm32f1xx_hal_uart.c ****   *           @arg @ref HAL_UART_RX_HALFCOMPLETE_CB_ID Rx Half Complete Callback ID
 867:./Drivers/STM32F1xx_HAL_Driver/Src/stm32f1xx_hal_uart.c ****   *           @arg @ref HAL_UART_RX_COMPLETE_CB_ID Rx Complete Callback ID
 868:./Drivers/STM32F1xx_HAL_Driver/Src/stm32f1xx_hal_uart.c ****   *           @arg @ref HAL_UART_ERROR_CB_ID Error Callback ID
 869:./Drivers/STM32F1xx_HAL_Driver/Src/stm32f1xx_hal_uart.c ****   *           @arg @ref HAL_UART_ABORT_COMPLETE_CB_ID Abort Complete Callback ID
 870:./Drivers/STM32F1xx_HAL_Driver/Src/stm32f1xx_hal_uart.c ****   *           @arg @ref HAL_UART_ABORT_TRANSMIT_COMPLETE_CB_ID Abort Transmit Complete Callback ID
 871:./Drivers/STM32F1xx_HAL_Driver/Src/stm32f1xx_hal_uart.c ****   *           @arg @ref HAL_UART_ABORT_RECEIVE_COMPLETE_CB_ID Abort Receive Complete Callback ID
 872:./Drivers/STM32F1xx_HAL_Driver/Src/stm32f1xx_hal_uart.c ****   *           @arg @ref HAL_UART_MSPINIT_CB_ID MspInit Callback ID
 873:./Drivers/STM32F1xx_HAL_Driver/Src/stm32f1xx_hal_uart.c ****   *           @arg @ref HAL_UART_MSPDEINIT_CB_ID MspDeInit Callback ID
 874:./Drivers/STM32F1xx_HAL_Driver/Src/stm32f1xx_hal_uart.c ****   * @retval HAL status
 875:./Drivers/STM32F1xx_HAL_Driver/Src/stm32f1xx_hal_uart.c ****   */
 876:./Drivers/STM32F1xx_HAL_Driver/Src/stm32f1xx_hal_uart.c **** HAL_StatusTypeDef HAL_UART_UnRegisterCallback(UART_HandleTypeDef *huart, HAL_UART_CallbackIDTypeDef
 877:./Drivers/STM32F1xx_HAL_Driver/Src/stm32f1xx_hal_uart.c **** {
 878:./Drivers/STM32F1xx_HAL_Driver/Src/stm32f1xx_hal_uart.c ****   HAL_StatusTypeDef status = HAL_OK;
 879:./Drivers/STM32F1xx_HAL_Driver/Src/stm32f1xx_hal_uart.c **** 
 880:./Drivers/STM32F1xx_HAL_Driver/Src/stm32f1xx_hal_uart.c ****   /* Process locked */
 881:./Drivers/STM32F1xx_HAL_Driver/Src/stm32f1xx_hal_uart.c ****   __HAL_LOCK(huart);
 882:./Drivers/STM32F1xx_HAL_Driver/Src/stm32f1xx_hal_uart.c **** 
 883:./Drivers/STM32F1xx_HAL_Driver/Src/stm32f1xx_hal_uart.c ****   if (HAL_UART_STATE_READY == huart->gState)
 884:./Drivers/STM32F1xx_HAL_Driver/Src/stm32f1xx_hal_uart.c ****   {
 885:./Drivers/STM32F1xx_HAL_Driver/Src/stm32f1xx_hal_uart.c ****     switch (CallbackID)
 886:./Drivers/STM32F1xx_HAL_Driver/Src/stm32f1xx_hal_uart.c ****     {
 887:./Drivers/STM32F1xx_HAL_Driver/Src/stm32f1xx_hal_uart.c ****       case HAL_UART_TX_HALFCOMPLETE_CB_ID :
 888:./Drivers/STM32F1xx_HAL_Driver/Src/stm32f1xx_hal_uart.c ****         huart->TxHalfCpltCallback = HAL_UART_TxHalfCpltCallback;               /* Legacy weak  TxHa
 889:./Drivers/STM32F1xx_HAL_Driver/Src/stm32f1xx_hal_uart.c ****         break;
 890:./Drivers/STM32F1xx_HAL_Driver/Src/stm32f1xx_hal_uart.c **** 
 891:./Drivers/STM32F1xx_HAL_Driver/Src/stm32f1xx_hal_uart.c ****       case HAL_UART_TX_COMPLETE_CB_ID :
 892:./Drivers/STM32F1xx_HAL_Driver/Src/stm32f1xx_hal_uart.c ****         huart->TxCpltCallback = HAL_UART_TxCpltCallback;                       /* Legacy weak TxCpl
 893:./Drivers/STM32F1xx_HAL_Driver/Src/stm32f1xx_hal_uart.c ****         break;
 894:./Drivers/STM32F1xx_HAL_Driver/Src/stm32f1xx_hal_uart.c **** 
 895:./Drivers/STM32F1xx_HAL_Driver/Src/stm32f1xx_hal_uart.c ****       case HAL_UART_RX_HALFCOMPLETE_CB_ID :
 896:./Drivers/STM32F1xx_HAL_Driver/Src/stm32f1xx_hal_uart.c ****         huart->RxHalfCpltCallback = HAL_UART_RxHalfCpltCallback;               /* Legacy weak RxHal
 897:./Drivers/STM32F1xx_HAL_Driver/Src/stm32f1xx_hal_uart.c ****         break;
 898:./Drivers/STM32F1xx_HAL_Driver/Src/stm32f1xx_hal_uart.c **** 
 899:./Drivers/STM32F1xx_HAL_Driver/Src/stm32f1xx_hal_uart.c ****       case HAL_UART_RX_COMPLETE_CB_ID :
 900:./Drivers/STM32F1xx_HAL_Driver/Src/stm32f1xx_hal_uart.c ****         huart->RxCpltCallback = HAL_UART_RxCpltCallback;                       /* Legacy weak RxCpl
 901:./Drivers/STM32F1xx_HAL_Driver/Src/stm32f1xx_hal_uart.c ****         break;
 902:./Drivers/STM32F1xx_HAL_Driver/Src/stm32f1xx_hal_uart.c **** 
 903:./Drivers/STM32F1xx_HAL_Driver/Src/stm32f1xx_hal_uart.c ****       case HAL_UART_ERROR_CB_ID :
 904:./Drivers/STM32F1xx_HAL_Driver/Src/stm32f1xx_hal_uart.c ****         huart->ErrorCallback = HAL_UART_ErrorCallback;                         /* Legacy weak Error
 905:./Drivers/STM32F1xx_HAL_Driver/Src/stm32f1xx_hal_uart.c ****         break;
 906:./Drivers/STM32F1xx_HAL_Driver/Src/stm32f1xx_hal_uart.c **** 
 907:./Drivers/STM32F1xx_HAL_Driver/Src/stm32f1xx_hal_uart.c ****       case HAL_UART_ABORT_COMPLETE_CB_ID :
 908:./Drivers/STM32F1xx_HAL_Driver/Src/stm32f1xx_hal_uart.c ****         huart->AbortCpltCallback = HAL_UART_AbortCpltCallback;                 /* Legacy weak Abort
 909:./Drivers/STM32F1xx_HAL_Driver/Src/stm32f1xx_hal_uart.c ****         break;
 910:./Drivers/STM32F1xx_HAL_Driver/Src/stm32f1xx_hal_uart.c **** 
 911:./Drivers/STM32F1xx_HAL_Driver/Src/stm32f1xx_hal_uart.c ****       case HAL_UART_ABORT_TRANSMIT_COMPLETE_CB_ID :
 912:./Drivers/STM32F1xx_HAL_Driver/Src/stm32f1xx_hal_uart.c ****         huart->AbortTransmitCpltCallback = HAL_UART_AbortTransmitCpltCallback; /* Legacy weak Abort
 913:./Drivers/STM32F1xx_HAL_Driver/Src/stm32f1xx_hal_uart.c ****         break;
 914:./Drivers/STM32F1xx_HAL_Driver/Src/stm32f1xx_hal_uart.c **** 
 915:./Drivers/STM32F1xx_HAL_Driver/Src/stm32f1xx_hal_uart.c ****       case HAL_UART_ABORT_RECEIVE_COMPLETE_CB_ID :
 916:./Drivers/STM32F1xx_HAL_Driver/Src/stm32f1xx_hal_uart.c ****         huart->AbortReceiveCpltCallback = HAL_UART_AbortReceiveCpltCallback;   /* Legacy weak Abort
ARM GAS  C:\Users\nguye\AppData\Local\Temp\ccUjla8d.s 			page 29


 917:./Drivers/STM32F1xx_HAL_Driver/Src/stm32f1xx_hal_uart.c ****         break;
 918:./Drivers/STM32F1xx_HAL_Driver/Src/stm32f1xx_hal_uart.c **** 
 919:./Drivers/STM32F1xx_HAL_Driver/Src/stm32f1xx_hal_uart.c ****       case HAL_UART_MSPINIT_CB_ID :
 920:./Drivers/STM32F1xx_HAL_Driver/Src/stm32f1xx_hal_uart.c ****         huart->MspInitCallback = HAL_UART_MspInit;                             /* Legacy weak MspIn
 921:./Drivers/STM32F1xx_HAL_Driver/Src/stm32f1xx_hal_uart.c ****         break;
 922:./Drivers/STM32F1xx_HAL_Driver/Src/stm32f1xx_hal_uart.c **** 
 923:./Drivers/STM32F1xx_HAL_Driver/Src/stm32f1xx_hal_uart.c ****       case HAL_UART_MSPDEINIT_CB_ID :
 924:./Drivers/STM32F1xx_HAL_Driver/Src/stm32f1xx_hal_uart.c ****         huart->MspDeInitCallback = HAL_UART_MspDeInit;                         /* Legacy weak MspDe
 925:./Drivers/STM32F1xx_HAL_Driver/Src/stm32f1xx_hal_uart.c ****         break;
 926:./Drivers/STM32F1xx_HAL_Driver/Src/stm32f1xx_hal_uart.c **** 
 927:./Drivers/STM32F1xx_HAL_Driver/Src/stm32f1xx_hal_uart.c ****       default :
 928:./Drivers/STM32F1xx_HAL_Driver/Src/stm32f1xx_hal_uart.c ****         /* Update the error code */
 929:./Drivers/STM32F1xx_HAL_Driver/Src/stm32f1xx_hal_uart.c ****         huart->ErrorCode |= HAL_UART_ERROR_INVALID_CALLBACK;
 930:./Drivers/STM32F1xx_HAL_Driver/Src/stm32f1xx_hal_uart.c **** 
 931:./Drivers/STM32F1xx_HAL_Driver/Src/stm32f1xx_hal_uart.c ****         /* Return error status */
 932:./Drivers/STM32F1xx_HAL_Driver/Src/stm32f1xx_hal_uart.c ****         status =  HAL_ERROR;
 933:./Drivers/STM32F1xx_HAL_Driver/Src/stm32f1xx_hal_uart.c ****         break;
 934:./Drivers/STM32F1xx_HAL_Driver/Src/stm32f1xx_hal_uart.c ****     }
 935:./Drivers/STM32F1xx_HAL_Driver/Src/stm32f1xx_hal_uart.c ****   }
 936:./Drivers/STM32F1xx_HAL_Driver/Src/stm32f1xx_hal_uart.c ****   else if (HAL_UART_STATE_RESET == huart->gState)
 937:./Drivers/STM32F1xx_HAL_Driver/Src/stm32f1xx_hal_uart.c ****   {
 938:./Drivers/STM32F1xx_HAL_Driver/Src/stm32f1xx_hal_uart.c ****     switch (CallbackID)
 939:./Drivers/STM32F1xx_HAL_Driver/Src/stm32f1xx_hal_uart.c ****     {
 940:./Drivers/STM32F1xx_HAL_Driver/Src/stm32f1xx_hal_uart.c ****       case HAL_UART_MSPINIT_CB_ID :
 941:./Drivers/STM32F1xx_HAL_Driver/Src/stm32f1xx_hal_uart.c ****         huart->MspInitCallback = HAL_UART_MspInit;
 942:./Drivers/STM32F1xx_HAL_Driver/Src/stm32f1xx_hal_uart.c ****         break;
 943:./Drivers/STM32F1xx_HAL_Driver/Src/stm32f1xx_hal_uart.c **** 
 944:./Drivers/STM32F1xx_HAL_Driver/Src/stm32f1xx_hal_uart.c ****       case HAL_UART_MSPDEINIT_CB_ID :
 945:./Drivers/STM32F1xx_HAL_Driver/Src/stm32f1xx_hal_uart.c ****         huart->MspDeInitCallback = HAL_UART_MspDeInit;
 946:./Drivers/STM32F1xx_HAL_Driver/Src/stm32f1xx_hal_uart.c ****         break;
 947:./Drivers/STM32F1xx_HAL_Driver/Src/stm32f1xx_hal_uart.c **** 
 948:./Drivers/STM32F1xx_HAL_Driver/Src/stm32f1xx_hal_uart.c ****       default :
 949:./Drivers/STM32F1xx_HAL_Driver/Src/stm32f1xx_hal_uart.c ****         /* Update the error code */
 950:./Drivers/STM32F1xx_HAL_Driver/Src/stm32f1xx_hal_uart.c ****         huart->ErrorCode |= HAL_UART_ERROR_INVALID_CALLBACK;
 951:./Drivers/STM32F1xx_HAL_Driver/Src/stm32f1xx_hal_uart.c **** 
 952:./Drivers/STM32F1xx_HAL_Driver/Src/stm32f1xx_hal_uart.c ****         /* Return error status */
 953:./Drivers/STM32F1xx_HAL_Driver/Src/stm32f1xx_hal_uart.c ****         status =  HAL_ERROR;
 954:./Drivers/STM32F1xx_HAL_Driver/Src/stm32f1xx_hal_uart.c ****         break;
 955:./Drivers/STM32F1xx_HAL_Driver/Src/stm32f1xx_hal_uart.c ****     }
 956:./Drivers/STM32F1xx_HAL_Driver/Src/stm32f1xx_hal_uart.c ****   }
 957:./Drivers/STM32F1xx_HAL_Driver/Src/stm32f1xx_hal_uart.c ****   else
 958:./Drivers/STM32F1xx_HAL_Driver/Src/stm32f1xx_hal_uart.c ****   {
 959:./Drivers/STM32F1xx_HAL_Driver/Src/stm32f1xx_hal_uart.c ****     /* Update the error code */
 960:./Drivers/STM32F1xx_HAL_Driver/Src/stm32f1xx_hal_uart.c ****     huart->ErrorCode |= HAL_UART_ERROR_INVALID_CALLBACK;
 961:./Drivers/STM32F1xx_HAL_Driver/Src/stm32f1xx_hal_uart.c **** 
 962:./Drivers/STM32F1xx_HAL_Driver/Src/stm32f1xx_hal_uart.c ****     /* Return error status */
 963:./Drivers/STM32F1xx_HAL_Driver/Src/stm32f1xx_hal_uart.c ****     status =  HAL_ERROR;
 964:./Drivers/STM32F1xx_HAL_Driver/Src/stm32f1xx_hal_uart.c ****   }
 965:./Drivers/STM32F1xx_HAL_Driver/Src/stm32f1xx_hal_uart.c **** 
 966:./Drivers/STM32F1xx_HAL_Driver/Src/stm32f1xx_hal_uart.c ****   /* Release Lock */
 967:./Drivers/STM32F1xx_HAL_Driver/Src/stm32f1xx_hal_uart.c ****   __HAL_UNLOCK(huart);
 968:./Drivers/STM32F1xx_HAL_Driver/Src/stm32f1xx_hal_uart.c **** 
 969:./Drivers/STM32F1xx_HAL_Driver/Src/stm32f1xx_hal_uart.c ****   return status;
 970:./Drivers/STM32F1xx_HAL_Driver/Src/stm32f1xx_hal_uart.c **** }
 971:./Drivers/STM32F1xx_HAL_Driver/Src/stm32f1xx_hal_uart.c **** 
 972:./Drivers/STM32F1xx_HAL_Driver/Src/stm32f1xx_hal_uart.c **** /**
 973:./Drivers/STM32F1xx_HAL_Driver/Src/stm32f1xx_hal_uart.c ****   * @brief  Register a User UART Rx Event Callback
ARM GAS  C:\Users\nguye\AppData\Local\Temp\ccUjla8d.s 			page 30


 974:./Drivers/STM32F1xx_HAL_Driver/Src/stm32f1xx_hal_uart.c ****   *         To be used instead of the weak predefined callback
 975:./Drivers/STM32F1xx_HAL_Driver/Src/stm32f1xx_hal_uart.c ****   * @param  huart     Uart handle
 976:./Drivers/STM32F1xx_HAL_Driver/Src/stm32f1xx_hal_uart.c ****   * @param  pCallback Pointer to the Rx Event Callback function
 977:./Drivers/STM32F1xx_HAL_Driver/Src/stm32f1xx_hal_uart.c ****   * @retval HAL status
 978:./Drivers/STM32F1xx_HAL_Driver/Src/stm32f1xx_hal_uart.c ****   */
 979:./Drivers/STM32F1xx_HAL_Driver/Src/stm32f1xx_hal_uart.c **** HAL_StatusTypeDef HAL_UART_RegisterRxEventCallback(UART_HandleTypeDef *huart, pUART_RxEventCallback
 980:./Drivers/STM32F1xx_HAL_Driver/Src/stm32f1xx_hal_uart.c **** {
 981:./Drivers/STM32F1xx_HAL_Driver/Src/stm32f1xx_hal_uart.c ****   HAL_StatusTypeDef status = HAL_OK;
 982:./Drivers/STM32F1xx_HAL_Driver/Src/stm32f1xx_hal_uart.c **** 
 983:./Drivers/STM32F1xx_HAL_Driver/Src/stm32f1xx_hal_uart.c ****   if (pCallback == NULL)
 984:./Drivers/STM32F1xx_HAL_Driver/Src/stm32f1xx_hal_uart.c ****   {
 985:./Drivers/STM32F1xx_HAL_Driver/Src/stm32f1xx_hal_uart.c ****     huart->ErrorCode |= HAL_UART_ERROR_INVALID_CALLBACK;
 986:./Drivers/STM32F1xx_HAL_Driver/Src/stm32f1xx_hal_uart.c **** 
 987:./Drivers/STM32F1xx_HAL_Driver/Src/stm32f1xx_hal_uart.c ****     return HAL_ERROR;
 988:./Drivers/STM32F1xx_HAL_Driver/Src/stm32f1xx_hal_uart.c ****   }
 989:./Drivers/STM32F1xx_HAL_Driver/Src/stm32f1xx_hal_uart.c **** 
 990:./Drivers/STM32F1xx_HAL_Driver/Src/stm32f1xx_hal_uart.c ****   /* Process locked */
 991:./Drivers/STM32F1xx_HAL_Driver/Src/stm32f1xx_hal_uart.c ****   __HAL_LOCK(huart);
 992:./Drivers/STM32F1xx_HAL_Driver/Src/stm32f1xx_hal_uart.c **** 
 993:./Drivers/STM32F1xx_HAL_Driver/Src/stm32f1xx_hal_uart.c ****   if (huart->gState == HAL_UART_STATE_READY)
 994:./Drivers/STM32F1xx_HAL_Driver/Src/stm32f1xx_hal_uart.c ****   {
 995:./Drivers/STM32F1xx_HAL_Driver/Src/stm32f1xx_hal_uart.c ****     huart->RxEventCallback = pCallback;
 996:./Drivers/STM32F1xx_HAL_Driver/Src/stm32f1xx_hal_uart.c ****   }
 997:./Drivers/STM32F1xx_HAL_Driver/Src/stm32f1xx_hal_uart.c ****   else
 998:./Drivers/STM32F1xx_HAL_Driver/Src/stm32f1xx_hal_uart.c ****   {
 999:./Drivers/STM32F1xx_HAL_Driver/Src/stm32f1xx_hal_uart.c ****     huart->ErrorCode |= HAL_UART_ERROR_INVALID_CALLBACK;
1000:./Drivers/STM32F1xx_HAL_Driver/Src/stm32f1xx_hal_uart.c **** 
1001:./Drivers/STM32F1xx_HAL_Driver/Src/stm32f1xx_hal_uart.c ****     status =  HAL_ERROR;
1002:./Drivers/STM32F1xx_HAL_Driver/Src/stm32f1xx_hal_uart.c ****   }
1003:./Drivers/STM32F1xx_HAL_Driver/Src/stm32f1xx_hal_uart.c **** 
1004:./Drivers/STM32F1xx_HAL_Driver/Src/stm32f1xx_hal_uart.c ****   /* Release Lock */
1005:./Drivers/STM32F1xx_HAL_Driver/Src/stm32f1xx_hal_uart.c ****   __HAL_UNLOCK(huart);
1006:./Drivers/STM32F1xx_HAL_Driver/Src/stm32f1xx_hal_uart.c **** 
1007:./Drivers/STM32F1xx_HAL_Driver/Src/stm32f1xx_hal_uart.c ****   return status;
1008:./Drivers/STM32F1xx_HAL_Driver/Src/stm32f1xx_hal_uart.c **** }
1009:./Drivers/STM32F1xx_HAL_Driver/Src/stm32f1xx_hal_uart.c **** 
1010:./Drivers/STM32F1xx_HAL_Driver/Src/stm32f1xx_hal_uart.c **** /**
1011:./Drivers/STM32F1xx_HAL_Driver/Src/stm32f1xx_hal_uart.c ****   * @brief  UnRegister the UART Rx Event Callback
1012:./Drivers/STM32F1xx_HAL_Driver/Src/stm32f1xx_hal_uart.c ****   *         UART Rx Event Callback is redirected to the weak HAL_UARTEx_RxEventCallback() predefine
1013:./Drivers/STM32F1xx_HAL_Driver/Src/stm32f1xx_hal_uart.c ****   * @param  huart     Uart handle
1014:./Drivers/STM32F1xx_HAL_Driver/Src/stm32f1xx_hal_uart.c ****   * @retval HAL status
1015:./Drivers/STM32F1xx_HAL_Driver/Src/stm32f1xx_hal_uart.c ****   */
1016:./Drivers/STM32F1xx_HAL_Driver/Src/stm32f1xx_hal_uart.c **** HAL_StatusTypeDef HAL_UART_UnRegisterRxEventCallback(UART_HandleTypeDef *huart)
1017:./Drivers/STM32F1xx_HAL_Driver/Src/stm32f1xx_hal_uart.c **** {
1018:./Drivers/STM32F1xx_HAL_Driver/Src/stm32f1xx_hal_uart.c ****   HAL_StatusTypeDef status = HAL_OK;
1019:./Drivers/STM32F1xx_HAL_Driver/Src/stm32f1xx_hal_uart.c **** 
1020:./Drivers/STM32F1xx_HAL_Driver/Src/stm32f1xx_hal_uart.c ****   /* Process locked */
1021:./Drivers/STM32F1xx_HAL_Driver/Src/stm32f1xx_hal_uart.c ****   __HAL_LOCK(huart);
1022:./Drivers/STM32F1xx_HAL_Driver/Src/stm32f1xx_hal_uart.c **** 
1023:./Drivers/STM32F1xx_HAL_Driver/Src/stm32f1xx_hal_uart.c ****   if (huart->gState == HAL_UART_STATE_READY)
1024:./Drivers/STM32F1xx_HAL_Driver/Src/stm32f1xx_hal_uart.c ****   {
1025:./Drivers/STM32F1xx_HAL_Driver/Src/stm32f1xx_hal_uart.c ****     huart->RxEventCallback = HAL_UARTEx_RxEventCallback; /* Legacy weak UART Rx Event Callback  */
1026:./Drivers/STM32F1xx_HAL_Driver/Src/stm32f1xx_hal_uart.c ****   }
1027:./Drivers/STM32F1xx_HAL_Driver/Src/stm32f1xx_hal_uart.c ****   else
1028:./Drivers/STM32F1xx_HAL_Driver/Src/stm32f1xx_hal_uart.c ****   {
1029:./Drivers/STM32F1xx_HAL_Driver/Src/stm32f1xx_hal_uart.c ****     huart->ErrorCode |= HAL_UART_ERROR_INVALID_CALLBACK;
1030:./Drivers/STM32F1xx_HAL_Driver/Src/stm32f1xx_hal_uart.c **** 
ARM GAS  C:\Users\nguye\AppData\Local\Temp\ccUjla8d.s 			page 31


1031:./Drivers/STM32F1xx_HAL_Driver/Src/stm32f1xx_hal_uart.c ****     status =  HAL_ERROR;
1032:./Drivers/STM32F1xx_HAL_Driver/Src/stm32f1xx_hal_uart.c ****   }
1033:./Drivers/STM32F1xx_HAL_Driver/Src/stm32f1xx_hal_uart.c **** 
1034:./Drivers/STM32F1xx_HAL_Driver/Src/stm32f1xx_hal_uart.c ****   /* Release Lock */
1035:./Drivers/STM32F1xx_HAL_Driver/Src/stm32f1xx_hal_uart.c ****   __HAL_UNLOCK(huart);
1036:./Drivers/STM32F1xx_HAL_Driver/Src/stm32f1xx_hal_uart.c ****   return status;
1037:./Drivers/STM32F1xx_HAL_Driver/Src/stm32f1xx_hal_uart.c **** }
1038:./Drivers/STM32F1xx_HAL_Driver/Src/stm32f1xx_hal_uart.c **** #endif /* USE_HAL_UART_REGISTER_CALLBACKS */
1039:./Drivers/STM32F1xx_HAL_Driver/Src/stm32f1xx_hal_uart.c **** 
1040:./Drivers/STM32F1xx_HAL_Driver/Src/stm32f1xx_hal_uart.c **** /**
1041:./Drivers/STM32F1xx_HAL_Driver/Src/stm32f1xx_hal_uart.c ****   * @}
1042:./Drivers/STM32F1xx_HAL_Driver/Src/stm32f1xx_hal_uart.c ****   */
1043:./Drivers/STM32F1xx_HAL_Driver/Src/stm32f1xx_hal_uart.c **** 
1044:./Drivers/STM32F1xx_HAL_Driver/Src/stm32f1xx_hal_uart.c **** /** @defgroup UART_Exported_Functions_Group2 IO operation functions
1045:./Drivers/STM32F1xx_HAL_Driver/Src/stm32f1xx_hal_uart.c ****   *  @brief UART Transmit and Receive functions
1046:./Drivers/STM32F1xx_HAL_Driver/Src/stm32f1xx_hal_uart.c ****   *
1047:./Drivers/STM32F1xx_HAL_Driver/Src/stm32f1xx_hal_uart.c **** @verbatim
1048:./Drivers/STM32F1xx_HAL_Driver/Src/stm32f1xx_hal_uart.c ****  ===============================================================================
1049:./Drivers/STM32F1xx_HAL_Driver/Src/stm32f1xx_hal_uart.c ****                       ##### IO operation functions #####
1050:./Drivers/STM32F1xx_HAL_Driver/Src/stm32f1xx_hal_uart.c ****  ===============================================================================
1051:./Drivers/STM32F1xx_HAL_Driver/Src/stm32f1xx_hal_uart.c ****     This subsection provides a set of functions allowing to manage the UART asynchronous
1052:./Drivers/STM32F1xx_HAL_Driver/Src/stm32f1xx_hal_uart.c ****     and Half duplex data transfers.
1053:./Drivers/STM32F1xx_HAL_Driver/Src/stm32f1xx_hal_uart.c **** 
1054:./Drivers/STM32F1xx_HAL_Driver/Src/stm32f1xx_hal_uart.c ****     (#) There are two modes of transfer:
1055:./Drivers/STM32F1xx_HAL_Driver/Src/stm32f1xx_hal_uart.c ****        (+) Blocking mode: The communication is performed in polling mode.
1056:./Drivers/STM32F1xx_HAL_Driver/Src/stm32f1xx_hal_uart.c ****            The HAL status of all data processing is returned by the same function
1057:./Drivers/STM32F1xx_HAL_Driver/Src/stm32f1xx_hal_uart.c ****            after finishing transfer.
1058:./Drivers/STM32F1xx_HAL_Driver/Src/stm32f1xx_hal_uart.c ****        (+) Non-Blocking mode: The communication is performed using Interrupts
1059:./Drivers/STM32F1xx_HAL_Driver/Src/stm32f1xx_hal_uart.c ****            or DMA, these API's return the HAL status.
1060:./Drivers/STM32F1xx_HAL_Driver/Src/stm32f1xx_hal_uart.c ****            The end of the data processing will be indicated through the
1061:./Drivers/STM32F1xx_HAL_Driver/Src/stm32f1xx_hal_uart.c ****            dedicated UART IRQ when using Interrupt mode or the DMA IRQ when
1062:./Drivers/STM32F1xx_HAL_Driver/Src/stm32f1xx_hal_uart.c ****            using DMA mode.
1063:./Drivers/STM32F1xx_HAL_Driver/Src/stm32f1xx_hal_uart.c ****            The HAL_UART_TxCpltCallback(), HAL_UART_RxCpltCallback() user callbacks
1064:./Drivers/STM32F1xx_HAL_Driver/Src/stm32f1xx_hal_uart.c ****            will be executed respectively at the end of the transmit or receive process
1065:./Drivers/STM32F1xx_HAL_Driver/Src/stm32f1xx_hal_uart.c ****            The HAL_UART_ErrorCallback()user callback will be executed when a communication error is
1066:./Drivers/STM32F1xx_HAL_Driver/Src/stm32f1xx_hal_uart.c **** 
1067:./Drivers/STM32F1xx_HAL_Driver/Src/stm32f1xx_hal_uart.c ****     (#) Blocking mode API's are :
1068:./Drivers/STM32F1xx_HAL_Driver/Src/stm32f1xx_hal_uart.c ****         (+) HAL_UART_Transmit()
1069:./Drivers/STM32F1xx_HAL_Driver/Src/stm32f1xx_hal_uart.c ****         (+) HAL_UART_Receive()
1070:./Drivers/STM32F1xx_HAL_Driver/Src/stm32f1xx_hal_uart.c **** 
1071:./Drivers/STM32F1xx_HAL_Driver/Src/stm32f1xx_hal_uart.c ****     (#) Non-Blocking mode API's with Interrupt are :
1072:./Drivers/STM32F1xx_HAL_Driver/Src/stm32f1xx_hal_uart.c ****         (+) HAL_UART_Transmit_IT()
1073:./Drivers/STM32F1xx_HAL_Driver/Src/stm32f1xx_hal_uart.c ****         (+) HAL_UART_Receive_IT()
1074:./Drivers/STM32F1xx_HAL_Driver/Src/stm32f1xx_hal_uart.c ****         (+) HAL_UART_IRQHandler()
1075:./Drivers/STM32F1xx_HAL_Driver/Src/stm32f1xx_hal_uart.c **** 
1076:./Drivers/STM32F1xx_HAL_Driver/Src/stm32f1xx_hal_uart.c ****     (#) Non-Blocking mode API's with DMA are :
1077:./Drivers/STM32F1xx_HAL_Driver/Src/stm32f1xx_hal_uart.c ****         (+) HAL_UART_Transmit_DMA()
1078:./Drivers/STM32F1xx_HAL_Driver/Src/stm32f1xx_hal_uart.c ****         (+) HAL_UART_Receive_DMA()
1079:./Drivers/STM32F1xx_HAL_Driver/Src/stm32f1xx_hal_uart.c ****         (+) HAL_UART_DMAPause()
1080:./Drivers/STM32F1xx_HAL_Driver/Src/stm32f1xx_hal_uart.c ****         (+) HAL_UART_DMAResume()
1081:./Drivers/STM32F1xx_HAL_Driver/Src/stm32f1xx_hal_uart.c ****         (+) HAL_UART_DMAStop()
1082:./Drivers/STM32F1xx_HAL_Driver/Src/stm32f1xx_hal_uart.c **** 
1083:./Drivers/STM32F1xx_HAL_Driver/Src/stm32f1xx_hal_uart.c ****     (#) A set of Transfer Complete Callbacks are provided in Non_Blocking mode:
1084:./Drivers/STM32F1xx_HAL_Driver/Src/stm32f1xx_hal_uart.c ****         (+) HAL_UART_TxHalfCpltCallback()
1085:./Drivers/STM32F1xx_HAL_Driver/Src/stm32f1xx_hal_uart.c ****         (+) HAL_UART_TxCpltCallback()
1086:./Drivers/STM32F1xx_HAL_Driver/Src/stm32f1xx_hal_uart.c ****         (+) HAL_UART_RxHalfCpltCallback()
1087:./Drivers/STM32F1xx_HAL_Driver/Src/stm32f1xx_hal_uart.c ****         (+) HAL_UART_RxCpltCallback()
ARM GAS  C:\Users\nguye\AppData\Local\Temp\ccUjla8d.s 			page 32


1088:./Drivers/STM32F1xx_HAL_Driver/Src/stm32f1xx_hal_uart.c ****         (+) HAL_UART_ErrorCallback()
1089:./Drivers/STM32F1xx_HAL_Driver/Src/stm32f1xx_hal_uart.c **** 
1090:./Drivers/STM32F1xx_HAL_Driver/Src/stm32f1xx_hal_uart.c ****     (#) Non-Blocking mode transfers could be aborted using Abort API's :
1091:./Drivers/STM32F1xx_HAL_Driver/Src/stm32f1xx_hal_uart.c ****         (+) HAL_UART_Abort()
1092:./Drivers/STM32F1xx_HAL_Driver/Src/stm32f1xx_hal_uart.c ****         (+) HAL_UART_AbortTransmit()
1093:./Drivers/STM32F1xx_HAL_Driver/Src/stm32f1xx_hal_uart.c ****         (+) HAL_UART_AbortReceive()
1094:./Drivers/STM32F1xx_HAL_Driver/Src/stm32f1xx_hal_uart.c ****         (+) HAL_UART_Abort_IT()
1095:./Drivers/STM32F1xx_HAL_Driver/Src/stm32f1xx_hal_uart.c ****         (+) HAL_UART_AbortTransmit_IT()
1096:./Drivers/STM32F1xx_HAL_Driver/Src/stm32f1xx_hal_uart.c ****         (+) HAL_UART_AbortReceive_IT()
1097:./Drivers/STM32F1xx_HAL_Driver/Src/stm32f1xx_hal_uart.c **** 
1098:./Drivers/STM32F1xx_HAL_Driver/Src/stm32f1xx_hal_uart.c ****     (#) For Abort services based on interrupts (HAL_UART_Abortxxx_IT), a set of Abort Complete Call
1099:./Drivers/STM32F1xx_HAL_Driver/Src/stm32f1xx_hal_uart.c ****         (+) HAL_UART_AbortCpltCallback()
1100:./Drivers/STM32F1xx_HAL_Driver/Src/stm32f1xx_hal_uart.c ****         (+) HAL_UART_AbortTransmitCpltCallback()
1101:./Drivers/STM32F1xx_HAL_Driver/Src/stm32f1xx_hal_uart.c ****         (+) HAL_UART_AbortReceiveCpltCallback()
1102:./Drivers/STM32F1xx_HAL_Driver/Src/stm32f1xx_hal_uart.c **** 
1103:./Drivers/STM32F1xx_HAL_Driver/Src/stm32f1xx_hal_uart.c ****     (#) A Rx Event Reception Callback (Rx event notification) is available for Non_Blocking modes o
1104:./Drivers/STM32F1xx_HAL_Driver/Src/stm32f1xx_hal_uart.c ****         (+) HAL_UARTEx_RxEventCallback()
1105:./Drivers/STM32F1xx_HAL_Driver/Src/stm32f1xx_hal_uart.c **** 
1106:./Drivers/STM32F1xx_HAL_Driver/Src/stm32f1xx_hal_uart.c ****     (#) In Non-Blocking mode transfers, possible errors are split into 2 categories.
1107:./Drivers/STM32F1xx_HAL_Driver/Src/stm32f1xx_hal_uart.c ****         Errors are handled as follows :
1108:./Drivers/STM32F1xx_HAL_Driver/Src/stm32f1xx_hal_uart.c ****        (+) Error is considered as Recoverable and non blocking : Transfer could go till end, but er
1109:./Drivers/STM32F1xx_HAL_Driver/Src/stm32f1xx_hal_uart.c ****            to be evaluated by user : this concerns Frame Error, Parity Error or Noise Error in Inte
1110:./Drivers/STM32F1xx_HAL_Driver/Src/stm32f1xx_hal_uart.c ****            Received character is then retrieved and stored in Rx buffer, Error code is set to allow
1111:./Drivers/STM32F1xx_HAL_Driver/Src/stm32f1xx_hal_uart.c ****            and HAL_UART_ErrorCallback() user callback is executed. Transfer is kept ongoing on UART
1112:./Drivers/STM32F1xx_HAL_Driver/Src/stm32f1xx_hal_uart.c ****            If user wants to abort it, Abort services should be called by user.
1113:./Drivers/STM32F1xx_HAL_Driver/Src/stm32f1xx_hal_uart.c ****        (+) Error is considered as Blocking : Transfer could not be completed properly and is aborte
1114:./Drivers/STM32F1xx_HAL_Driver/Src/stm32f1xx_hal_uart.c ****            This concerns Overrun Error In Interrupt mode reception and all errors in DMA mode.
1115:./Drivers/STM32F1xx_HAL_Driver/Src/stm32f1xx_hal_uart.c ****            Error code is set to allow user to identify error type, and HAL_UART_ErrorCallback() use
1116:./Drivers/STM32F1xx_HAL_Driver/Src/stm32f1xx_hal_uart.c **** 
1117:./Drivers/STM32F1xx_HAL_Driver/Src/stm32f1xx_hal_uart.c ****     -@- In the Half duplex communication, it is forbidden to run the transmit
1118:./Drivers/STM32F1xx_HAL_Driver/Src/stm32f1xx_hal_uart.c ****         and receive process in parallel, the UART state HAL_UART_STATE_BUSY_TX_RX can't be useful.
1119:./Drivers/STM32F1xx_HAL_Driver/Src/stm32f1xx_hal_uart.c **** 
1120:./Drivers/STM32F1xx_HAL_Driver/Src/stm32f1xx_hal_uart.c **** @endverbatim
1121:./Drivers/STM32F1xx_HAL_Driver/Src/stm32f1xx_hal_uart.c ****   * @{
1122:./Drivers/STM32F1xx_HAL_Driver/Src/stm32f1xx_hal_uart.c ****   */
1123:./Drivers/STM32F1xx_HAL_Driver/Src/stm32f1xx_hal_uart.c **** 
1124:./Drivers/STM32F1xx_HAL_Driver/Src/stm32f1xx_hal_uart.c **** /**
1125:./Drivers/STM32F1xx_HAL_Driver/Src/stm32f1xx_hal_uart.c ****   * @brief  Sends an amount of data in blocking mode.
1126:./Drivers/STM32F1xx_HAL_Driver/Src/stm32f1xx_hal_uart.c ****   * @note   When UART parity is not enabled (PCE = 0), and Word Length is configured to 9 bits (M1-
1127:./Drivers/STM32F1xx_HAL_Driver/Src/stm32f1xx_hal_uart.c ****   *         the sent data is handled as a set of u16. In this case, Size must indicate the number
1128:./Drivers/STM32F1xx_HAL_Driver/Src/stm32f1xx_hal_uart.c ****   *         of u16 provided through pData.
1129:./Drivers/STM32F1xx_HAL_Driver/Src/stm32f1xx_hal_uart.c ****   * @param  huart Pointer to a UART_HandleTypeDef structure that contains
1130:./Drivers/STM32F1xx_HAL_Driver/Src/stm32f1xx_hal_uart.c ****   *               the configuration information for the specified UART module.
1131:./Drivers/STM32F1xx_HAL_Driver/Src/stm32f1xx_hal_uart.c ****   * @param  pData Pointer to data buffer (u8 or u16 data elements).
1132:./Drivers/STM32F1xx_HAL_Driver/Src/stm32f1xx_hal_uart.c ****   * @param  Size  Amount of data elements (u8 or u16) to be sent
1133:./Drivers/STM32F1xx_HAL_Driver/Src/stm32f1xx_hal_uart.c ****   * @param  Timeout Timeout duration
1134:./Drivers/STM32F1xx_HAL_Driver/Src/stm32f1xx_hal_uart.c ****   * @retval HAL status
1135:./Drivers/STM32F1xx_HAL_Driver/Src/stm32f1xx_hal_uart.c ****   */
1136:./Drivers/STM32F1xx_HAL_Driver/Src/stm32f1xx_hal_uart.c **** HAL_StatusTypeDef HAL_UART_Transmit(UART_HandleTypeDef *huart, uint8_t *pData, uint16_t Size, uint3
1137:./Drivers/STM32F1xx_HAL_Driver/Src/stm32f1xx_hal_uart.c **** {
 696              		.loc 1 1137 1
 697              		.cfi_startproc
 698              		@ args = 0, pretend = 0, frame = 32
 699              		@ frame_needed = 1, uses_anonymous_args = 0
 700 0000 80B5     		push	{r7, lr}
 701              		.cfi_def_cfa_offset 8
 702              		.cfi_offset 7, -8
ARM GAS  C:\Users\nguye\AppData\Local\Temp\ccUjla8d.s 			page 33


 703              		.cfi_offset 14, -4
 704 0002 8AB0     		sub	sp, sp, #40
 705              		.cfi_def_cfa_offset 48
 706 0004 02AF     		add	r7, sp, #8
 707              		.cfi_def_cfa 7, 40
 708 0006 F860     		str	r0, [r7, #12]
 709 0008 B960     		str	r1, [r7, #8]
 710 000a 3B60     		str	r3, [r7]
 711 000c 1346     		mov	r3, r2	@ movhi
 712 000e FB80     		strh	r3, [r7, #6]	@ movhi
1138:./Drivers/STM32F1xx_HAL_Driver/Src/stm32f1xx_hal_uart.c ****   uint8_t  *pdata8bits;
1139:./Drivers/STM32F1xx_HAL_Driver/Src/stm32f1xx_hal_uart.c ****   uint16_t *pdata16bits;
1140:./Drivers/STM32F1xx_HAL_Driver/Src/stm32f1xx_hal_uart.c ****   uint32_t tickstart = 0U;
 713              		.loc 1 1140 12
 714 0010 0023     		movs	r3, #0
 715 0012 7B61     		str	r3, [r7, #20]
1141:./Drivers/STM32F1xx_HAL_Driver/Src/stm32f1xx_hal_uart.c **** 
1142:./Drivers/STM32F1xx_HAL_Driver/Src/stm32f1xx_hal_uart.c ****   /* Check that a Tx process is not already ongoing */
1143:./Drivers/STM32F1xx_HAL_Driver/Src/stm32f1xx_hal_uart.c ****   if (huart->gState == HAL_UART_STATE_READY)
 716              		.loc 1 1143 12
 717 0014 FB68     		ldr	r3, [r7, #12]
 718 0016 93F83D30 		ldrb	r3, [r3, #61]
 719 001a DBB2     		uxtb	r3, r3
 720              		.loc 1 1143 6
 721 001c 202B     		cmp	r3, #32
 722 001e 7CD1     		bne	.L23
1144:./Drivers/STM32F1xx_HAL_Driver/Src/stm32f1xx_hal_uart.c ****   {
1145:./Drivers/STM32F1xx_HAL_Driver/Src/stm32f1xx_hal_uart.c ****     if ((pData == NULL) || (Size == 0U))
 723              		.loc 1 1145 8
 724 0020 BB68     		ldr	r3, [r7, #8]
 725 0022 002B     		cmp	r3, #0
 726 0024 02D0     		beq	.L24
 727              		.loc 1 1145 25 discriminator 1
 728 0026 FB88     		ldrh	r3, [r7, #6]
 729 0028 002B     		cmp	r3, #0
 730 002a 01D1     		bne	.L25
 731              	.L24:
1146:./Drivers/STM32F1xx_HAL_Driver/Src/stm32f1xx_hal_uart.c ****     {
1147:./Drivers/STM32F1xx_HAL_Driver/Src/stm32f1xx_hal_uart.c ****       return  HAL_ERROR;
 732              		.loc 1 1147 15
 733 002c 0123     		movs	r3, #1
 734 002e 75E0     		b	.L26
 735              	.L25:
1148:./Drivers/STM32F1xx_HAL_Driver/Src/stm32f1xx_hal_uart.c ****     }
1149:./Drivers/STM32F1xx_HAL_Driver/Src/stm32f1xx_hal_uart.c **** 
1150:./Drivers/STM32F1xx_HAL_Driver/Src/stm32f1xx_hal_uart.c ****     /* Process Locked */
1151:./Drivers/STM32F1xx_HAL_Driver/Src/stm32f1xx_hal_uart.c ****     __HAL_LOCK(huart);
 736              		.loc 1 1151 5
 737 0030 FB68     		ldr	r3, [r7, #12]
 738 0032 93F83C30 		ldrb	r3, [r3, #60]	@ zero_extendqisi2
 739 0036 012B     		cmp	r3, #1
 740 0038 01D1     		bne	.L27
 741              		.loc 1 1151 5 is_stmt 0 discriminator 1
 742 003a 0223     		movs	r3, #2
 743 003c 6EE0     		b	.L26
 744              	.L27:
 745              		.loc 1 1151 5 discriminator 2
ARM GAS  C:\Users\nguye\AppData\Local\Temp\ccUjla8d.s 			page 34


 746 003e FB68     		ldr	r3, [r7, #12]
 747 0040 0122     		movs	r2, #1
 748 0042 83F83C20 		strb	r2, [r3, #60]
1152:./Drivers/STM32F1xx_HAL_Driver/Src/stm32f1xx_hal_uart.c **** 
1153:./Drivers/STM32F1xx_HAL_Driver/Src/stm32f1xx_hal_uart.c ****     huart->ErrorCode = HAL_UART_ERROR_NONE;
 749              		.loc 1 1153 22 is_stmt 1 discriminator 2
 750 0046 FB68     		ldr	r3, [r7, #12]
 751 0048 0022     		movs	r2, #0
 752 004a 1A64     		str	r2, [r3, #64]
1154:./Drivers/STM32F1xx_HAL_Driver/Src/stm32f1xx_hal_uart.c ****     huart->gState = HAL_UART_STATE_BUSY_TX;
 753              		.loc 1 1154 19 discriminator 2
 754 004c FB68     		ldr	r3, [r7, #12]
 755 004e 2122     		movs	r2, #33
 756 0050 83F83D20 		strb	r2, [r3, #61]
1155:./Drivers/STM32F1xx_HAL_Driver/Src/stm32f1xx_hal_uart.c **** 
1156:./Drivers/STM32F1xx_HAL_Driver/Src/stm32f1xx_hal_uart.c ****     /* Init tickstart for timeout management */
1157:./Drivers/STM32F1xx_HAL_Driver/Src/stm32f1xx_hal_uart.c ****     tickstart = HAL_GetTick();
 757              		.loc 1 1157 17 discriminator 2
 758 0054 FFF7FEFF 		bl	HAL_GetTick
 759 0058 7861     		str	r0, [r7, #20]
1158:./Drivers/STM32F1xx_HAL_Driver/Src/stm32f1xx_hal_uart.c **** 
1159:./Drivers/STM32F1xx_HAL_Driver/Src/stm32f1xx_hal_uart.c ****     huart->TxXferSize = Size;
 760              		.loc 1 1159 23 discriminator 2
 761 005a FB68     		ldr	r3, [r7, #12]
 762 005c FA88     		ldrh	r2, [r7, #6]	@ movhi
 763 005e 9A84     		strh	r2, [r3, #36]	@ movhi
1160:./Drivers/STM32F1xx_HAL_Driver/Src/stm32f1xx_hal_uart.c ****     huart->TxXferCount = Size;
 764              		.loc 1 1160 24 discriminator 2
 765 0060 FB68     		ldr	r3, [r7, #12]
 766 0062 FA88     		ldrh	r2, [r7, #6]	@ movhi
 767 0064 DA84     		strh	r2, [r3, #38]	@ movhi
1161:./Drivers/STM32F1xx_HAL_Driver/Src/stm32f1xx_hal_uart.c **** 
1162:./Drivers/STM32F1xx_HAL_Driver/Src/stm32f1xx_hal_uart.c ****     /* In case of 9bits/No Parity transfer, pData needs to be handled as a uint16_t pointer */
1163:./Drivers/STM32F1xx_HAL_Driver/Src/stm32f1xx_hal_uart.c ****     if ((huart->Init.WordLength == UART_WORDLENGTH_9B) && (huart->Init.Parity == UART_PARITY_NONE))
 768              		.loc 1 1163 21 discriminator 2
 769 0066 FB68     		ldr	r3, [r7, #12]
 770 0068 9B68     		ldr	r3, [r3, #8]
 771              		.loc 1 1163 8 discriminator 2
 772 006a B3F5805F 		cmp	r3, #4096
 773 006e 08D1     		bne	.L28
 774              		.loc 1 1163 71 discriminator 1
 775 0070 FB68     		ldr	r3, [r7, #12]
 776 0072 1B69     		ldr	r3, [r3, #16]
 777              		.loc 1 1163 56 discriminator 1
 778 0074 002B     		cmp	r3, #0
 779 0076 04D1     		bne	.L28
1164:./Drivers/STM32F1xx_HAL_Driver/Src/stm32f1xx_hal_uart.c ****     {
1165:./Drivers/STM32F1xx_HAL_Driver/Src/stm32f1xx_hal_uart.c ****       pdata8bits  = NULL;
 780              		.loc 1 1165 19
 781 0078 0023     		movs	r3, #0
 782 007a FB61     		str	r3, [r7, #28]
1166:./Drivers/STM32F1xx_HAL_Driver/Src/stm32f1xx_hal_uart.c ****       pdata16bits = (uint16_t *) pData;
 783              		.loc 1 1166 19
 784 007c BB68     		ldr	r3, [r7, #8]
 785 007e BB61     		str	r3, [r7, #24]
 786 0080 03E0     		b	.L29
 787              	.L28:
ARM GAS  C:\Users\nguye\AppData\Local\Temp\ccUjla8d.s 			page 35


1167:./Drivers/STM32F1xx_HAL_Driver/Src/stm32f1xx_hal_uart.c ****     }
1168:./Drivers/STM32F1xx_HAL_Driver/Src/stm32f1xx_hal_uart.c ****     else
1169:./Drivers/STM32F1xx_HAL_Driver/Src/stm32f1xx_hal_uart.c ****     {
1170:./Drivers/STM32F1xx_HAL_Driver/Src/stm32f1xx_hal_uart.c ****       pdata8bits  = pData;
 788              		.loc 1 1170 19
 789 0082 BB68     		ldr	r3, [r7, #8]
 790 0084 FB61     		str	r3, [r7, #28]
1171:./Drivers/STM32F1xx_HAL_Driver/Src/stm32f1xx_hal_uart.c ****       pdata16bits = NULL;
 791              		.loc 1 1171 19
 792 0086 0023     		movs	r3, #0
 793 0088 BB61     		str	r3, [r7, #24]
 794              	.L29:
1172:./Drivers/STM32F1xx_HAL_Driver/Src/stm32f1xx_hal_uart.c ****     }
1173:./Drivers/STM32F1xx_HAL_Driver/Src/stm32f1xx_hal_uart.c **** 
1174:./Drivers/STM32F1xx_HAL_Driver/Src/stm32f1xx_hal_uart.c ****     /* Process Unlocked */
1175:./Drivers/STM32F1xx_HAL_Driver/Src/stm32f1xx_hal_uart.c ****     __HAL_UNLOCK(huart);
 795              		.loc 1 1175 5
 796 008a FB68     		ldr	r3, [r7, #12]
 797 008c 0022     		movs	r2, #0
 798 008e 83F83C20 		strb	r2, [r3, #60]
1176:./Drivers/STM32F1xx_HAL_Driver/Src/stm32f1xx_hal_uart.c **** 
1177:./Drivers/STM32F1xx_HAL_Driver/Src/stm32f1xx_hal_uart.c ****     while (huart->TxXferCount > 0U)
 799              		.loc 1 1177 11
 800 0092 2AE0     		b	.L30
 801              	.L34:
1178:./Drivers/STM32F1xx_HAL_Driver/Src/stm32f1xx_hal_uart.c ****     {
1179:./Drivers/STM32F1xx_HAL_Driver/Src/stm32f1xx_hal_uart.c ****       if (UART_WaitOnFlagUntilTimeout(huart, UART_FLAG_TXE, RESET, tickstart, Timeout) != HAL_OK)
 802              		.loc 1 1179 11
 803 0094 3B68     		ldr	r3, [r7]
 804 0096 0093     		str	r3, [sp]
 805 0098 7B69     		ldr	r3, [r7, #20]
 806 009a 0022     		movs	r2, #0
 807 009c 8021     		movs	r1, #128
 808 009e F868     		ldr	r0, [r7, #12]
 809 00a0 FFF7FEFF 		bl	UART_WaitOnFlagUntilTimeout
 810 00a4 0346     		mov	r3, r0
 811              		.loc 1 1179 10
 812 00a6 002B     		cmp	r3, #0
 813 00a8 01D0     		beq	.L31
1180:./Drivers/STM32F1xx_HAL_Driver/Src/stm32f1xx_hal_uart.c ****       {
1181:./Drivers/STM32F1xx_HAL_Driver/Src/stm32f1xx_hal_uart.c ****         return HAL_TIMEOUT;
 814              		.loc 1 1181 16
 815 00aa 0323     		movs	r3, #3
 816 00ac 36E0     		b	.L26
 817              	.L31:
1182:./Drivers/STM32F1xx_HAL_Driver/Src/stm32f1xx_hal_uart.c ****       }
1183:./Drivers/STM32F1xx_HAL_Driver/Src/stm32f1xx_hal_uart.c ****       if (pdata8bits == NULL)
 818              		.loc 1 1183 10
 819 00ae FB69     		ldr	r3, [r7, #28]
 820 00b0 002B     		cmp	r3, #0
 821 00b2 0BD1     		bne	.L32
1184:./Drivers/STM32F1xx_HAL_Driver/Src/stm32f1xx_hal_uart.c ****       {
1185:./Drivers/STM32F1xx_HAL_Driver/Src/stm32f1xx_hal_uart.c ****         huart->Instance->DR = (uint16_t)(*pdata16bits & 0x01FFU);
 822              		.loc 1 1185 42
 823 00b4 BB69     		ldr	r3, [r7, #24]
 824 00b6 1B88     		ldrh	r3, [r3]
 825              		.loc 1 1185 31
ARM GAS  C:\Users\nguye\AppData\Local\Temp\ccUjla8d.s 			page 36


 826 00b8 1A46     		mov	r2, r3
 827              		.loc 1 1185 14
 828 00ba FB68     		ldr	r3, [r7, #12]
 829 00bc 1B68     		ldr	r3, [r3]
 830              		.loc 1 1185 31
 831 00be C2F30802 		ubfx	r2, r2, #0, #9
 832              		.loc 1 1185 29
 833 00c2 5A60     		str	r2, [r3, #4]
1186:./Drivers/STM32F1xx_HAL_Driver/Src/stm32f1xx_hal_uart.c ****         pdata16bits++;
 834              		.loc 1 1186 20
 835 00c4 BB69     		ldr	r3, [r7, #24]
 836 00c6 0233     		adds	r3, r3, #2
 837 00c8 BB61     		str	r3, [r7, #24]
 838 00ca 07E0     		b	.L33
 839              	.L32:
1187:./Drivers/STM32F1xx_HAL_Driver/Src/stm32f1xx_hal_uart.c ****       }
1188:./Drivers/STM32F1xx_HAL_Driver/Src/stm32f1xx_hal_uart.c ****       else
1189:./Drivers/STM32F1xx_HAL_Driver/Src/stm32f1xx_hal_uart.c ****       {
1190:./Drivers/STM32F1xx_HAL_Driver/Src/stm32f1xx_hal_uart.c ****         huart->Instance->DR = (uint8_t)(*pdata8bits & 0xFFU);
 840              		.loc 1 1190 41
 841 00cc FB69     		ldr	r3, [r7, #28]
 842 00ce 1A78     		ldrb	r2, [r3]	@ zero_extendqisi2
 843              		.loc 1 1190 14
 844 00d0 FB68     		ldr	r3, [r7, #12]
 845 00d2 1B68     		ldr	r3, [r3]
 846              		.loc 1 1190 29
 847 00d4 5A60     		str	r2, [r3, #4]
1191:./Drivers/STM32F1xx_HAL_Driver/Src/stm32f1xx_hal_uart.c ****         pdata8bits++;
 848              		.loc 1 1191 19
 849 00d6 FB69     		ldr	r3, [r7, #28]
 850 00d8 0133     		adds	r3, r3, #1
 851 00da FB61     		str	r3, [r7, #28]
 852              	.L33:
1192:./Drivers/STM32F1xx_HAL_Driver/Src/stm32f1xx_hal_uart.c ****       }
1193:./Drivers/STM32F1xx_HAL_Driver/Src/stm32f1xx_hal_uart.c ****       huart->TxXferCount--;
 853              		.loc 1 1193 12
 854 00dc FB68     		ldr	r3, [r7, #12]
 855 00de DB8C     		ldrh	r3, [r3, #38]	@ movhi
 856 00e0 9BB2     		uxth	r3, r3
 857              		.loc 1 1193 25
 858 00e2 013B     		subs	r3, r3, #1
 859 00e4 9AB2     		uxth	r2, r3
 860 00e6 FB68     		ldr	r3, [r7, #12]
 861 00e8 DA84     		strh	r2, [r3, #38]	@ movhi
 862              	.L30:
1177:./Drivers/STM32F1xx_HAL_Driver/Src/stm32f1xx_hal_uart.c ****     {
 863              		.loc 1 1177 17
 864 00ea FB68     		ldr	r3, [r7, #12]
 865 00ec DB8C     		ldrh	r3, [r3, #38]	@ movhi
 866 00ee 9BB2     		uxth	r3, r3
1177:./Drivers/STM32F1xx_HAL_Driver/Src/stm32f1xx_hal_uart.c ****     {
 867              		.loc 1 1177 11
 868 00f0 002B     		cmp	r3, #0
 869 00f2 CFD1     		bne	.L34
1194:./Drivers/STM32F1xx_HAL_Driver/Src/stm32f1xx_hal_uart.c ****     }
1195:./Drivers/STM32F1xx_HAL_Driver/Src/stm32f1xx_hal_uart.c **** 
1196:./Drivers/STM32F1xx_HAL_Driver/Src/stm32f1xx_hal_uart.c ****     if (UART_WaitOnFlagUntilTimeout(huart, UART_FLAG_TC, RESET, tickstart, Timeout) != HAL_OK)
ARM GAS  C:\Users\nguye\AppData\Local\Temp\ccUjla8d.s 			page 37


 870              		.loc 1 1196 9
 871 00f4 3B68     		ldr	r3, [r7]
 872 00f6 0093     		str	r3, [sp]
 873 00f8 7B69     		ldr	r3, [r7, #20]
 874 00fa 0022     		movs	r2, #0
 875 00fc 4021     		movs	r1, #64
 876 00fe F868     		ldr	r0, [r7, #12]
 877 0100 FFF7FEFF 		bl	UART_WaitOnFlagUntilTimeout
 878 0104 0346     		mov	r3, r0
 879              		.loc 1 1196 8
 880 0106 002B     		cmp	r3, #0
 881 0108 01D0     		beq	.L35
1197:./Drivers/STM32F1xx_HAL_Driver/Src/stm32f1xx_hal_uart.c ****     {
1198:./Drivers/STM32F1xx_HAL_Driver/Src/stm32f1xx_hal_uart.c ****       return HAL_TIMEOUT;
 882              		.loc 1 1198 14
 883 010a 0323     		movs	r3, #3
 884 010c 06E0     		b	.L26
 885              	.L35:
1199:./Drivers/STM32F1xx_HAL_Driver/Src/stm32f1xx_hal_uart.c ****     }
1200:./Drivers/STM32F1xx_HAL_Driver/Src/stm32f1xx_hal_uart.c **** 
1201:./Drivers/STM32F1xx_HAL_Driver/Src/stm32f1xx_hal_uart.c ****     /* At end of Tx process, restore huart->gState to Ready */
1202:./Drivers/STM32F1xx_HAL_Driver/Src/stm32f1xx_hal_uart.c ****     huart->gState = HAL_UART_STATE_READY;
 886              		.loc 1 1202 19
 887 010e FB68     		ldr	r3, [r7, #12]
 888 0110 2022     		movs	r2, #32
 889 0112 83F83D20 		strb	r2, [r3, #61]
1203:./Drivers/STM32F1xx_HAL_Driver/Src/stm32f1xx_hal_uart.c **** 
1204:./Drivers/STM32F1xx_HAL_Driver/Src/stm32f1xx_hal_uart.c ****     return HAL_OK;
 890              		.loc 1 1204 12
 891 0116 0023     		movs	r3, #0
 892 0118 00E0     		b	.L26
 893              	.L23:
1205:./Drivers/STM32F1xx_HAL_Driver/Src/stm32f1xx_hal_uart.c ****   }
1206:./Drivers/STM32F1xx_HAL_Driver/Src/stm32f1xx_hal_uart.c ****   else
1207:./Drivers/STM32F1xx_HAL_Driver/Src/stm32f1xx_hal_uart.c ****   {
1208:./Drivers/STM32F1xx_HAL_Driver/Src/stm32f1xx_hal_uart.c ****     return HAL_BUSY;
 894              		.loc 1 1208 12
 895 011a 0223     		movs	r3, #2
 896              	.L26:
1209:./Drivers/STM32F1xx_HAL_Driver/Src/stm32f1xx_hal_uart.c ****   }
1210:./Drivers/STM32F1xx_HAL_Driver/Src/stm32f1xx_hal_uart.c **** }
 897              		.loc 1 1210 1
 898 011c 1846     		mov	r0, r3
 899 011e 2037     		adds	r7, r7, #32
 900              		.cfi_def_cfa_offset 8
 901 0120 BD46     		mov	sp, r7
 902              		.cfi_def_cfa_register 13
 903              		@ sp needed
 904 0122 80BD     		pop	{r7, pc}
 905              		.cfi_endproc
 906              	.LFE72:
 908              		.section	.text.HAL_UART_Receive,"ax",%progbits
 909              		.align	1
 910              		.global	HAL_UART_Receive
 911              		.syntax unified
 912              		.thumb
 913              		.thumb_func
ARM GAS  C:\Users\nguye\AppData\Local\Temp\ccUjla8d.s 			page 38


 914              		.fpu softvfp
 916              	HAL_UART_Receive:
 917              	.LFB73:
1211:./Drivers/STM32F1xx_HAL_Driver/Src/stm32f1xx_hal_uart.c **** 
1212:./Drivers/STM32F1xx_HAL_Driver/Src/stm32f1xx_hal_uart.c **** /**
1213:./Drivers/STM32F1xx_HAL_Driver/Src/stm32f1xx_hal_uart.c ****   * @brief  Receives an amount of data in blocking mode.
1214:./Drivers/STM32F1xx_HAL_Driver/Src/stm32f1xx_hal_uart.c ****   * @note   When UART parity is not enabled (PCE = 0), and Word Length is configured to 9 bits (M1-
1215:./Drivers/STM32F1xx_HAL_Driver/Src/stm32f1xx_hal_uart.c ****   *         the received data is handled as a set of u16. In this case, Size must indicate the numb
1216:./Drivers/STM32F1xx_HAL_Driver/Src/stm32f1xx_hal_uart.c ****   *         of u16 available through pData.
1217:./Drivers/STM32F1xx_HAL_Driver/Src/stm32f1xx_hal_uart.c ****   * @param  huart Pointer to a UART_HandleTypeDef structure that contains
1218:./Drivers/STM32F1xx_HAL_Driver/Src/stm32f1xx_hal_uart.c ****   *               the configuration information for the specified UART module.
1219:./Drivers/STM32F1xx_HAL_Driver/Src/stm32f1xx_hal_uart.c ****   * @param  pData Pointer to data buffer (u8 or u16 data elements).
1220:./Drivers/STM32F1xx_HAL_Driver/Src/stm32f1xx_hal_uart.c ****   * @param  Size  Amount of data elements (u8 or u16) to be received.
1221:./Drivers/STM32F1xx_HAL_Driver/Src/stm32f1xx_hal_uart.c ****   * @param  Timeout Timeout duration
1222:./Drivers/STM32F1xx_HAL_Driver/Src/stm32f1xx_hal_uart.c ****   * @retval HAL status
1223:./Drivers/STM32F1xx_HAL_Driver/Src/stm32f1xx_hal_uart.c ****   */
1224:./Drivers/STM32F1xx_HAL_Driver/Src/stm32f1xx_hal_uart.c **** HAL_StatusTypeDef HAL_UART_Receive(UART_HandleTypeDef *huart, uint8_t *pData, uint16_t Size, uint32
1225:./Drivers/STM32F1xx_HAL_Driver/Src/stm32f1xx_hal_uart.c **** {
 918              		.loc 1 1225 1
 919              		.cfi_startproc
 920              		@ args = 0, pretend = 0, frame = 32
 921              		@ frame_needed = 1, uses_anonymous_args = 0
 922 0000 80B5     		push	{r7, lr}
 923              		.cfi_def_cfa_offset 8
 924              		.cfi_offset 7, -8
 925              		.cfi_offset 14, -4
 926 0002 8AB0     		sub	sp, sp, #40
 927              		.cfi_def_cfa_offset 48
 928 0004 02AF     		add	r7, sp, #8
 929              		.cfi_def_cfa 7, 40
 930 0006 F860     		str	r0, [r7, #12]
 931 0008 B960     		str	r1, [r7, #8]
 932 000a 3B60     		str	r3, [r7]
 933 000c 1346     		mov	r3, r2	@ movhi
 934 000e FB80     		strh	r3, [r7, #6]	@ movhi
1226:./Drivers/STM32F1xx_HAL_Driver/Src/stm32f1xx_hal_uart.c ****   uint8_t  *pdata8bits;
1227:./Drivers/STM32F1xx_HAL_Driver/Src/stm32f1xx_hal_uart.c ****   uint16_t *pdata16bits;
1228:./Drivers/STM32F1xx_HAL_Driver/Src/stm32f1xx_hal_uart.c ****   uint32_t tickstart = 0U;
 935              		.loc 1 1228 12
 936 0010 0023     		movs	r3, #0
 937 0012 7B61     		str	r3, [r7, #20]
1229:./Drivers/STM32F1xx_HAL_Driver/Src/stm32f1xx_hal_uart.c **** 
1230:./Drivers/STM32F1xx_HAL_Driver/Src/stm32f1xx_hal_uart.c ****   /* Check that a Rx process is not already ongoing */
1231:./Drivers/STM32F1xx_HAL_Driver/Src/stm32f1xx_hal_uart.c ****   if (huart->RxState == HAL_UART_STATE_READY)
 938              		.loc 1 1231 12
 939 0014 FB68     		ldr	r3, [r7, #12]
 940 0016 93F83E30 		ldrb	r3, [r3, #62]
 941 001a DBB2     		uxtb	r3, r3
 942              		.loc 1 1231 6
 943 001c 202B     		cmp	r3, #32
 944 001e 40F08C80 		bne	.L37
1232:./Drivers/STM32F1xx_HAL_Driver/Src/stm32f1xx_hal_uart.c ****   {
1233:./Drivers/STM32F1xx_HAL_Driver/Src/stm32f1xx_hal_uart.c ****     if ((pData == NULL) || (Size == 0U))
 945              		.loc 1 1233 8
 946 0022 BB68     		ldr	r3, [r7, #8]
 947 0024 002B     		cmp	r3, #0
 948 0026 02D0     		beq	.L38
ARM GAS  C:\Users\nguye\AppData\Local\Temp\ccUjla8d.s 			page 39


 949              		.loc 1 1233 25 discriminator 1
 950 0028 FB88     		ldrh	r3, [r7, #6]
 951 002a 002B     		cmp	r3, #0
 952 002c 01D1     		bne	.L39
 953              	.L38:
1234:./Drivers/STM32F1xx_HAL_Driver/Src/stm32f1xx_hal_uart.c ****     {
1235:./Drivers/STM32F1xx_HAL_Driver/Src/stm32f1xx_hal_uart.c ****       return  HAL_ERROR;
 954              		.loc 1 1235 15
 955 002e 0123     		movs	r3, #1
 956 0030 84E0     		b	.L40
 957              	.L39:
1236:./Drivers/STM32F1xx_HAL_Driver/Src/stm32f1xx_hal_uart.c ****     }
1237:./Drivers/STM32F1xx_HAL_Driver/Src/stm32f1xx_hal_uart.c **** 
1238:./Drivers/STM32F1xx_HAL_Driver/Src/stm32f1xx_hal_uart.c ****     /* Process Locked */
1239:./Drivers/STM32F1xx_HAL_Driver/Src/stm32f1xx_hal_uart.c ****     __HAL_LOCK(huart);
 958              		.loc 1 1239 5
 959 0032 FB68     		ldr	r3, [r7, #12]
 960 0034 93F83C30 		ldrb	r3, [r3, #60]	@ zero_extendqisi2
 961 0038 012B     		cmp	r3, #1
 962 003a 01D1     		bne	.L41
 963              		.loc 1 1239 5 is_stmt 0 discriminator 1
 964 003c 0223     		movs	r3, #2
 965 003e 7DE0     		b	.L40
 966              	.L41:
 967              		.loc 1 1239 5 discriminator 2
 968 0040 FB68     		ldr	r3, [r7, #12]
 969 0042 0122     		movs	r2, #1
 970 0044 83F83C20 		strb	r2, [r3, #60]
1240:./Drivers/STM32F1xx_HAL_Driver/Src/stm32f1xx_hal_uart.c **** 
1241:./Drivers/STM32F1xx_HAL_Driver/Src/stm32f1xx_hal_uart.c ****     huart->ErrorCode = HAL_UART_ERROR_NONE;
 971              		.loc 1 1241 22 is_stmt 1 discriminator 2
 972 0048 FB68     		ldr	r3, [r7, #12]
 973 004a 0022     		movs	r2, #0
 974 004c 1A64     		str	r2, [r3, #64]
1242:./Drivers/STM32F1xx_HAL_Driver/Src/stm32f1xx_hal_uart.c ****     huart->RxState = HAL_UART_STATE_BUSY_RX;
 975              		.loc 1 1242 20 discriminator 2
 976 004e FB68     		ldr	r3, [r7, #12]
 977 0050 2222     		movs	r2, #34
 978 0052 83F83E20 		strb	r2, [r3, #62]
1243:./Drivers/STM32F1xx_HAL_Driver/Src/stm32f1xx_hal_uart.c ****     huart->ReceptionType = HAL_UART_RECEPTION_STANDARD;
 979              		.loc 1 1243 26 discriminator 2
 980 0056 FB68     		ldr	r3, [r7, #12]
 981 0058 0022     		movs	r2, #0
 982 005a 1A63     		str	r2, [r3, #48]
1244:./Drivers/STM32F1xx_HAL_Driver/Src/stm32f1xx_hal_uart.c **** 
1245:./Drivers/STM32F1xx_HAL_Driver/Src/stm32f1xx_hal_uart.c ****     /* Init tickstart for timeout management */
1246:./Drivers/STM32F1xx_HAL_Driver/Src/stm32f1xx_hal_uart.c ****     tickstart = HAL_GetTick();
 983              		.loc 1 1246 17 discriminator 2
 984 005c FFF7FEFF 		bl	HAL_GetTick
 985 0060 7861     		str	r0, [r7, #20]
1247:./Drivers/STM32F1xx_HAL_Driver/Src/stm32f1xx_hal_uart.c **** 
1248:./Drivers/STM32F1xx_HAL_Driver/Src/stm32f1xx_hal_uart.c ****     huart->RxXferSize = Size;
 986              		.loc 1 1248 23 discriminator 2
 987 0062 FB68     		ldr	r3, [r7, #12]
 988 0064 FA88     		ldrh	r2, [r7, #6]	@ movhi
 989 0066 9A85     		strh	r2, [r3, #44]	@ movhi
1249:./Drivers/STM32F1xx_HAL_Driver/Src/stm32f1xx_hal_uart.c ****     huart->RxXferCount = Size;
ARM GAS  C:\Users\nguye\AppData\Local\Temp\ccUjla8d.s 			page 40


 990              		.loc 1 1249 24 discriminator 2
 991 0068 FB68     		ldr	r3, [r7, #12]
 992 006a FA88     		ldrh	r2, [r7, #6]	@ movhi
 993 006c DA85     		strh	r2, [r3, #46]	@ movhi
1250:./Drivers/STM32F1xx_HAL_Driver/Src/stm32f1xx_hal_uart.c **** 
1251:./Drivers/STM32F1xx_HAL_Driver/Src/stm32f1xx_hal_uart.c ****     /* In case of 9bits/No Parity transfer, pRxData needs to be handled as a uint16_t pointer */
1252:./Drivers/STM32F1xx_HAL_Driver/Src/stm32f1xx_hal_uart.c ****     if ((huart->Init.WordLength == UART_WORDLENGTH_9B) && (huart->Init.Parity == UART_PARITY_NONE))
 994              		.loc 1 1252 21 discriminator 2
 995 006e FB68     		ldr	r3, [r7, #12]
 996 0070 9B68     		ldr	r3, [r3, #8]
 997              		.loc 1 1252 8 discriminator 2
 998 0072 B3F5805F 		cmp	r3, #4096
 999 0076 08D1     		bne	.L42
 1000              		.loc 1 1252 71 discriminator 1
 1001 0078 FB68     		ldr	r3, [r7, #12]
 1002 007a 1B69     		ldr	r3, [r3, #16]
 1003              		.loc 1 1252 56 discriminator 1
 1004 007c 002B     		cmp	r3, #0
 1005 007e 04D1     		bne	.L42
1253:./Drivers/STM32F1xx_HAL_Driver/Src/stm32f1xx_hal_uart.c ****     {
1254:./Drivers/STM32F1xx_HAL_Driver/Src/stm32f1xx_hal_uart.c ****       pdata8bits  = NULL;
 1006              		.loc 1 1254 19
 1007 0080 0023     		movs	r3, #0
 1008 0082 FB61     		str	r3, [r7, #28]
1255:./Drivers/STM32F1xx_HAL_Driver/Src/stm32f1xx_hal_uart.c ****       pdata16bits = (uint16_t *) pData;
 1009              		.loc 1 1255 19
 1010 0084 BB68     		ldr	r3, [r7, #8]
 1011 0086 BB61     		str	r3, [r7, #24]
 1012 0088 03E0     		b	.L43
 1013              	.L42:
1256:./Drivers/STM32F1xx_HAL_Driver/Src/stm32f1xx_hal_uart.c ****     }
1257:./Drivers/STM32F1xx_HAL_Driver/Src/stm32f1xx_hal_uart.c ****     else
1258:./Drivers/STM32F1xx_HAL_Driver/Src/stm32f1xx_hal_uart.c ****     {
1259:./Drivers/STM32F1xx_HAL_Driver/Src/stm32f1xx_hal_uart.c ****       pdata8bits  = pData;
 1014              		.loc 1 1259 19
 1015 008a BB68     		ldr	r3, [r7, #8]
 1016 008c FB61     		str	r3, [r7, #28]
1260:./Drivers/STM32F1xx_HAL_Driver/Src/stm32f1xx_hal_uart.c ****       pdata16bits = NULL;
 1017              		.loc 1 1260 19
 1018 008e 0023     		movs	r3, #0
 1019 0090 BB61     		str	r3, [r7, #24]
 1020              	.L43:
1261:./Drivers/STM32F1xx_HAL_Driver/Src/stm32f1xx_hal_uart.c ****     }
1262:./Drivers/STM32F1xx_HAL_Driver/Src/stm32f1xx_hal_uart.c **** 
1263:./Drivers/STM32F1xx_HAL_Driver/Src/stm32f1xx_hal_uart.c ****     /* Process Unlocked */
1264:./Drivers/STM32F1xx_HAL_Driver/Src/stm32f1xx_hal_uart.c ****     __HAL_UNLOCK(huart);
 1021              		.loc 1 1264 5
 1022 0092 FB68     		ldr	r3, [r7, #12]
 1023 0094 0022     		movs	r2, #0
 1024 0096 83F83C20 		strb	r2, [r3, #60]
1265:./Drivers/STM32F1xx_HAL_Driver/Src/stm32f1xx_hal_uart.c **** 
1266:./Drivers/STM32F1xx_HAL_Driver/Src/stm32f1xx_hal_uart.c ****     /* Check the remain data to be received */
1267:./Drivers/STM32F1xx_HAL_Driver/Src/stm32f1xx_hal_uart.c ****     while (huart->RxXferCount > 0U)
 1025              		.loc 1 1267 11
 1026 009a 43E0     		b	.L44
 1027              	.L51:
1268:./Drivers/STM32F1xx_HAL_Driver/Src/stm32f1xx_hal_uart.c ****     {
ARM GAS  C:\Users\nguye\AppData\Local\Temp\ccUjla8d.s 			page 41


1269:./Drivers/STM32F1xx_HAL_Driver/Src/stm32f1xx_hal_uart.c ****       if (UART_WaitOnFlagUntilTimeout(huart, UART_FLAG_RXNE, RESET, tickstart, Timeout) != HAL_OK)
 1028              		.loc 1 1269 11
 1029 009c 3B68     		ldr	r3, [r7]
 1030 009e 0093     		str	r3, [sp]
 1031 00a0 7B69     		ldr	r3, [r7, #20]
 1032 00a2 0022     		movs	r2, #0
 1033 00a4 2021     		movs	r1, #32
 1034 00a6 F868     		ldr	r0, [r7, #12]
 1035 00a8 FFF7FEFF 		bl	UART_WaitOnFlagUntilTimeout
 1036 00ac 0346     		mov	r3, r0
 1037              		.loc 1 1269 10
 1038 00ae 002B     		cmp	r3, #0
 1039 00b0 01D0     		beq	.L45
1270:./Drivers/STM32F1xx_HAL_Driver/Src/stm32f1xx_hal_uart.c ****       {
1271:./Drivers/STM32F1xx_HAL_Driver/Src/stm32f1xx_hal_uart.c ****         return HAL_TIMEOUT;
 1040              		.loc 1 1271 16
 1041 00b2 0323     		movs	r3, #3
 1042 00b4 42E0     		b	.L40
 1043              	.L45:
1272:./Drivers/STM32F1xx_HAL_Driver/Src/stm32f1xx_hal_uart.c ****       }
1273:./Drivers/STM32F1xx_HAL_Driver/Src/stm32f1xx_hal_uart.c ****       if (pdata8bits == NULL)
 1044              		.loc 1 1273 10
 1045 00b6 FB69     		ldr	r3, [r7, #28]
 1046 00b8 002B     		cmp	r3, #0
 1047 00ba 0CD1     		bne	.L46
1274:./Drivers/STM32F1xx_HAL_Driver/Src/stm32f1xx_hal_uart.c ****       {
1275:./Drivers/STM32F1xx_HAL_Driver/Src/stm32f1xx_hal_uart.c ****         *pdata16bits = (uint16_t)(huart->Instance->DR & 0x01FF);
 1048              		.loc 1 1275 40
 1049 00bc FB68     		ldr	r3, [r7, #12]
 1050 00be 1B68     		ldr	r3, [r3]
 1051              		.loc 1 1275 50
 1052 00c0 5B68     		ldr	r3, [r3, #4]
 1053              		.loc 1 1275 24
 1054 00c2 9BB2     		uxth	r3, r3
 1055 00c4 C3F30803 		ubfx	r3, r3, #0, #9
 1056 00c8 9AB2     		uxth	r2, r3
 1057              		.loc 1 1275 22
 1058 00ca BB69     		ldr	r3, [r7, #24]
 1059 00cc 1A80     		strh	r2, [r3]	@ movhi
1276:./Drivers/STM32F1xx_HAL_Driver/Src/stm32f1xx_hal_uart.c ****         pdata16bits++;
 1060              		.loc 1 1276 20
 1061 00ce BB69     		ldr	r3, [r7, #24]
 1062 00d0 0233     		adds	r3, r3, #2
 1063 00d2 BB61     		str	r3, [r7, #24]
 1064 00d4 1FE0     		b	.L47
 1065              	.L46:
1277:./Drivers/STM32F1xx_HAL_Driver/Src/stm32f1xx_hal_uart.c ****       }
1278:./Drivers/STM32F1xx_HAL_Driver/Src/stm32f1xx_hal_uart.c ****       else
1279:./Drivers/STM32F1xx_HAL_Driver/Src/stm32f1xx_hal_uart.c ****       {
1280:./Drivers/STM32F1xx_HAL_Driver/Src/stm32f1xx_hal_uart.c ****         if ((huart->Init.WordLength == UART_WORDLENGTH_9B) || ((huart->Init.WordLength == UART_WORD
 1066              		.loc 1 1280 25
 1067 00d6 FB68     		ldr	r3, [r7, #12]
 1068 00d8 9B68     		ldr	r3, [r3, #8]
 1069              		.loc 1 1280 12
 1070 00da B3F5805F 		cmp	r3, #4096
 1071 00de 07D0     		beq	.L48
 1072              		.loc 1 1280 76 discriminator 1
ARM GAS  C:\Users\nguye\AppData\Local\Temp\ccUjla8d.s 			page 42


 1073 00e0 FB68     		ldr	r3, [r7, #12]
 1074 00e2 9B68     		ldr	r3, [r3, #8]
 1075              		.loc 1 1280 60 discriminator 1
 1076 00e4 002B     		cmp	r3, #0
 1077 00e6 0AD1     		bne	.L49
 1078              		.loc 1 1280 126 discriminator 2
 1079 00e8 FB68     		ldr	r3, [r7, #12]
 1080 00ea 1B69     		ldr	r3, [r3, #16]
 1081              		.loc 1 1280 111 discriminator 2
 1082 00ec 002B     		cmp	r3, #0
 1083 00ee 06D1     		bne	.L49
 1084              	.L48:
1281:./Drivers/STM32F1xx_HAL_Driver/Src/stm32f1xx_hal_uart.c ****         {
1282:./Drivers/STM32F1xx_HAL_Driver/Src/stm32f1xx_hal_uart.c ****           *pdata8bits = (uint8_t)(huart->Instance->DR & (uint8_t)0x00FF);
 1085              		.loc 1 1282 40
 1086 00f0 FB68     		ldr	r3, [r7, #12]
 1087 00f2 1B68     		ldr	r3, [r3]
 1088              		.loc 1 1282 50
 1089 00f4 5B68     		ldr	r3, [r3, #4]
 1090              		.loc 1 1282 25
 1091 00f6 DAB2     		uxtb	r2, r3
 1092              		.loc 1 1282 23
 1093 00f8 FB69     		ldr	r3, [r7, #28]
 1094 00fa 1A70     		strb	r2, [r3]
 1095 00fc 08E0     		b	.L50
 1096              	.L49:
1283:./Drivers/STM32F1xx_HAL_Driver/Src/stm32f1xx_hal_uart.c ****         }
1284:./Drivers/STM32F1xx_HAL_Driver/Src/stm32f1xx_hal_uart.c ****         else
1285:./Drivers/STM32F1xx_HAL_Driver/Src/stm32f1xx_hal_uart.c ****         {
1286:./Drivers/STM32F1xx_HAL_Driver/Src/stm32f1xx_hal_uart.c ****           *pdata8bits = (uint8_t)(huart->Instance->DR & (uint8_t)0x007F);
 1097              		.loc 1 1286 40
 1098 00fe FB68     		ldr	r3, [r7, #12]
 1099 0100 1B68     		ldr	r3, [r3]
 1100              		.loc 1 1286 50
 1101 0102 5B68     		ldr	r3, [r3, #4]
 1102              		.loc 1 1286 25
 1103 0104 DBB2     		uxtb	r3, r3
 1104 0106 03F07F03 		and	r3, r3, #127
 1105 010a DAB2     		uxtb	r2, r3
 1106              		.loc 1 1286 23
 1107 010c FB69     		ldr	r3, [r7, #28]
 1108 010e 1A70     		strb	r2, [r3]
 1109              	.L50:
1287:./Drivers/STM32F1xx_HAL_Driver/Src/stm32f1xx_hal_uart.c ****         }
1288:./Drivers/STM32F1xx_HAL_Driver/Src/stm32f1xx_hal_uart.c ****         pdata8bits++;
 1110              		.loc 1 1288 19
 1111 0110 FB69     		ldr	r3, [r7, #28]
 1112 0112 0133     		adds	r3, r3, #1
 1113 0114 FB61     		str	r3, [r7, #28]
 1114              	.L47:
1289:./Drivers/STM32F1xx_HAL_Driver/Src/stm32f1xx_hal_uart.c ****       }
1290:./Drivers/STM32F1xx_HAL_Driver/Src/stm32f1xx_hal_uart.c ****       huart->RxXferCount--;
 1115              		.loc 1 1290 12
 1116 0116 FB68     		ldr	r3, [r7, #12]
 1117 0118 DB8D     		ldrh	r3, [r3, #46]	@ movhi
 1118 011a 9BB2     		uxth	r3, r3
 1119              		.loc 1 1290 25
ARM GAS  C:\Users\nguye\AppData\Local\Temp\ccUjla8d.s 			page 43


 1120 011c 013B     		subs	r3, r3, #1
 1121 011e 9AB2     		uxth	r2, r3
 1122 0120 FB68     		ldr	r3, [r7, #12]
 1123 0122 DA85     		strh	r2, [r3, #46]	@ movhi
 1124              	.L44:
1267:./Drivers/STM32F1xx_HAL_Driver/Src/stm32f1xx_hal_uart.c ****     {
 1125              		.loc 1 1267 17
 1126 0124 FB68     		ldr	r3, [r7, #12]
 1127 0126 DB8D     		ldrh	r3, [r3, #46]	@ movhi
 1128 0128 9BB2     		uxth	r3, r3
1267:./Drivers/STM32F1xx_HAL_Driver/Src/stm32f1xx_hal_uart.c ****     {
 1129              		.loc 1 1267 11
 1130 012a 002B     		cmp	r3, #0
 1131 012c B6D1     		bne	.L51
1291:./Drivers/STM32F1xx_HAL_Driver/Src/stm32f1xx_hal_uart.c ****     }
1292:./Drivers/STM32F1xx_HAL_Driver/Src/stm32f1xx_hal_uart.c **** 
1293:./Drivers/STM32F1xx_HAL_Driver/Src/stm32f1xx_hal_uart.c ****     /* At end of Rx process, restore huart->RxState to Ready */
1294:./Drivers/STM32F1xx_HAL_Driver/Src/stm32f1xx_hal_uart.c ****     huart->RxState = HAL_UART_STATE_READY;
 1132              		.loc 1 1294 20
 1133 012e FB68     		ldr	r3, [r7, #12]
 1134 0130 2022     		movs	r2, #32
 1135 0132 83F83E20 		strb	r2, [r3, #62]
1295:./Drivers/STM32F1xx_HAL_Driver/Src/stm32f1xx_hal_uart.c **** 
1296:./Drivers/STM32F1xx_HAL_Driver/Src/stm32f1xx_hal_uart.c ****     return HAL_OK;
 1136              		.loc 1 1296 12
 1137 0136 0023     		movs	r3, #0
 1138 0138 00E0     		b	.L40
 1139              	.L37:
1297:./Drivers/STM32F1xx_HAL_Driver/Src/stm32f1xx_hal_uart.c ****   }
1298:./Drivers/STM32F1xx_HAL_Driver/Src/stm32f1xx_hal_uart.c ****   else
1299:./Drivers/STM32F1xx_HAL_Driver/Src/stm32f1xx_hal_uart.c ****   {
1300:./Drivers/STM32F1xx_HAL_Driver/Src/stm32f1xx_hal_uart.c ****     return HAL_BUSY;
 1140              		.loc 1 1300 12
 1141 013a 0223     		movs	r3, #2
 1142              	.L40:
1301:./Drivers/STM32F1xx_HAL_Driver/Src/stm32f1xx_hal_uart.c ****   }
1302:./Drivers/STM32F1xx_HAL_Driver/Src/stm32f1xx_hal_uart.c **** }
 1143              		.loc 1 1302 1
 1144 013c 1846     		mov	r0, r3
 1145 013e 2037     		adds	r7, r7, #32
 1146              		.cfi_def_cfa_offset 8
 1147 0140 BD46     		mov	sp, r7
 1148              		.cfi_def_cfa_register 13
 1149              		@ sp needed
 1150 0142 80BD     		pop	{r7, pc}
 1151              		.cfi_endproc
 1152              	.LFE73:
 1154              		.section	.text.HAL_UART_Transmit_IT,"ax",%progbits
 1155              		.align	1
 1156              		.global	HAL_UART_Transmit_IT
 1157              		.syntax unified
 1158              		.thumb
 1159              		.thumb_func
 1160              		.fpu softvfp
 1162              	HAL_UART_Transmit_IT:
 1163              	.LFB74:
1303:./Drivers/STM32F1xx_HAL_Driver/Src/stm32f1xx_hal_uart.c **** 
ARM GAS  C:\Users\nguye\AppData\Local\Temp\ccUjla8d.s 			page 44


1304:./Drivers/STM32F1xx_HAL_Driver/Src/stm32f1xx_hal_uart.c **** /**
1305:./Drivers/STM32F1xx_HAL_Driver/Src/stm32f1xx_hal_uart.c ****   * @brief  Sends an amount of data in non blocking mode.
1306:./Drivers/STM32F1xx_HAL_Driver/Src/stm32f1xx_hal_uart.c ****   * @note   When UART parity is not enabled (PCE = 0), and Word Length is configured to 9 bits (M1-
1307:./Drivers/STM32F1xx_HAL_Driver/Src/stm32f1xx_hal_uart.c ****   *         the sent data is handled as a set of u16. In this case, Size must indicate the number
1308:./Drivers/STM32F1xx_HAL_Driver/Src/stm32f1xx_hal_uart.c ****   *         of u16 provided through pData.
1309:./Drivers/STM32F1xx_HAL_Driver/Src/stm32f1xx_hal_uart.c ****   * @param  huart Pointer to a UART_HandleTypeDef structure that contains
1310:./Drivers/STM32F1xx_HAL_Driver/Src/stm32f1xx_hal_uart.c ****   *               the configuration information for the specified UART module.
1311:./Drivers/STM32F1xx_HAL_Driver/Src/stm32f1xx_hal_uart.c ****   * @param  pData Pointer to data buffer (u8 or u16 data elements).
1312:./Drivers/STM32F1xx_HAL_Driver/Src/stm32f1xx_hal_uart.c ****   * @param  Size  Amount of data elements (u8 or u16) to be sent
1313:./Drivers/STM32F1xx_HAL_Driver/Src/stm32f1xx_hal_uart.c ****   * @retval HAL status
1314:./Drivers/STM32F1xx_HAL_Driver/Src/stm32f1xx_hal_uart.c ****   */
1315:./Drivers/STM32F1xx_HAL_Driver/Src/stm32f1xx_hal_uart.c **** HAL_StatusTypeDef HAL_UART_Transmit_IT(UART_HandleTypeDef *huart, uint8_t *pData, uint16_t Size)
1316:./Drivers/STM32F1xx_HAL_Driver/Src/stm32f1xx_hal_uart.c **** {
 1164              		.loc 1 1316 1
 1165              		.cfi_startproc
 1166              		@ args = 0, pretend = 0, frame = 16
 1167              		@ frame_needed = 1, uses_anonymous_args = 0
 1168              		@ link register save eliminated.
 1169 0000 80B4     		push	{r7}
 1170              		.cfi_def_cfa_offset 4
 1171              		.cfi_offset 7, -4
 1172 0002 85B0     		sub	sp, sp, #20
 1173              		.cfi_def_cfa_offset 24
 1174 0004 00AF     		add	r7, sp, #0
 1175              		.cfi_def_cfa_register 7
 1176 0006 F860     		str	r0, [r7, #12]
 1177 0008 B960     		str	r1, [r7, #8]
 1178 000a 1346     		mov	r3, r2
 1179 000c FB80     		strh	r3, [r7, #6]	@ movhi
1317:./Drivers/STM32F1xx_HAL_Driver/Src/stm32f1xx_hal_uart.c ****   /* Check that a Tx process is not already ongoing */
1318:./Drivers/STM32F1xx_HAL_Driver/Src/stm32f1xx_hal_uart.c ****   if (huart->gState == HAL_UART_STATE_READY)
 1180              		.loc 1 1318 12
 1181 000e FB68     		ldr	r3, [r7, #12]
 1182 0010 93F83D30 		ldrb	r3, [r3, #61]
 1183 0014 DBB2     		uxtb	r3, r3
 1184              		.loc 1 1318 6
 1185 0016 202B     		cmp	r3, #32
 1186 0018 30D1     		bne	.L53
1319:./Drivers/STM32F1xx_HAL_Driver/Src/stm32f1xx_hal_uart.c ****   {
1320:./Drivers/STM32F1xx_HAL_Driver/Src/stm32f1xx_hal_uart.c ****     if ((pData == NULL) || (Size == 0U))
 1187              		.loc 1 1320 8
 1188 001a BB68     		ldr	r3, [r7, #8]
 1189 001c 002B     		cmp	r3, #0
 1190 001e 02D0     		beq	.L54
 1191              		.loc 1 1320 25 discriminator 1
 1192 0020 FB88     		ldrh	r3, [r7, #6]
 1193 0022 002B     		cmp	r3, #0
 1194 0024 01D1     		bne	.L55
 1195              	.L54:
1321:./Drivers/STM32F1xx_HAL_Driver/Src/stm32f1xx_hal_uart.c ****     {
1322:./Drivers/STM32F1xx_HAL_Driver/Src/stm32f1xx_hal_uart.c ****       return HAL_ERROR;
 1196              		.loc 1 1322 14
 1197 0026 0123     		movs	r3, #1
 1198 0028 29E0     		b	.L56
 1199              	.L55:
1323:./Drivers/STM32F1xx_HAL_Driver/Src/stm32f1xx_hal_uart.c ****     }
1324:./Drivers/STM32F1xx_HAL_Driver/Src/stm32f1xx_hal_uart.c **** 
ARM GAS  C:\Users\nguye\AppData\Local\Temp\ccUjla8d.s 			page 45


1325:./Drivers/STM32F1xx_HAL_Driver/Src/stm32f1xx_hal_uart.c ****     /* Process Locked */
1326:./Drivers/STM32F1xx_HAL_Driver/Src/stm32f1xx_hal_uart.c ****     __HAL_LOCK(huart);
 1200              		.loc 1 1326 5
 1201 002a FB68     		ldr	r3, [r7, #12]
 1202 002c 93F83C30 		ldrb	r3, [r3, #60]	@ zero_extendqisi2
 1203 0030 012B     		cmp	r3, #1
 1204 0032 01D1     		bne	.L57
 1205              		.loc 1 1326 5 is_stmt 0 discriminator 1
 1206 0034 0223     		movs	r3, #2
 1207 0036 22E0     		b	.L56
 1208              	.L57:
 1209              		.loc 1 1326 5 discriminator 2
 1210 0038 FB68     		ldr	r3, [r7, #12]
 1211 003a 0122     		movs	r2, #1
 1212 003c 83F83C20 		strb	r2, [r3, #60]
1327:./Drivers/STM32F1xx_HAL_Driver/Src/stm32f1xx_hal_uart.c **** 
1328:./Drivers/STM32F1xx_HAL_Driver/Src/stm32f1xx_hal_uart.c ****     huart->pTxBuffPtr = pData;
 1213              		.loc 1 1328 23 is_stmt 1 discriminator 2
 1214 0040 FB68     		ldr	r3, [r7, #12]
 1215 0042 BA68     		ldr	r2, [r7, #8]
 1216 0044 1A62     		str	r2, [r3, #32]
1329:./Drivers/STM32F1xx_HAL_Driver/Src/stm32f1xx_hal_uart.c ****     huart->TxXferSize = Size;
 1217              		.loc 1 1329 23 discriminator 2
 1218 0046 FB68     		ldr	r3, [r7, #12]
 1219 0048 FA88     		ldrh	r2, [r7, #6]	@ movhi
 1220 004a 9A84     		strh	r2, [r3, #36]	@ movhi
1330:./Drivers/STM32F1xx_HAL_Driver/Src/stm32f1xx_hal_uart.c ****     huart->TxXferCount = Size;
 1221              		.loc 1 1330 24 discriminator 2
 1222 004c FB68     		ldr	r3, [r7, #12]
 1223 004e FA88     		ldrh	r2, [r7, #6]	@ movhi
 1224 0050 DA84     		strh	r2, [r3, #38]	@ movhi
1331:./Drivers/STM32F1xx_HAL_Driver/Src/stm32f1xx_hal_uart.c **** 
1332:./Drivers/STM32F1xx_HAL_Driver/Src/stm32f1xx_hal_uart.c ****     huart->ErrorCode = HAL_UART_ERROR_NONE;
 1225              		.loc 1 1332 22 discriminator 2
 1226 0052 FB68     		ldr	r3, [r7, #12]
 1227 0054 0022     		movs	r2, #0
 1228 0056 1A64     		str	r2, [r3, #64]
1333:./Drivers/STM32F1xx_HAL_Driver/Src/stm32f1xx_hal_uart.c ****     huart->gState = HAL_UART_STATE_BUSY_TX;
 1229              		.loc 1 1333 19 discriminator 2
 1230 0058 FB68     		ldr	r3, [r7, #12]
 1231 005a 2122     		movs	r2, #33
 1232 005c 83F83D20 		strb	r2, [r3, #61]
1334:./Drivers/STM32F1xx_HAL_Driver/Src/stm32f1xx_hal_uart.c **** 
1335:./Drivers/STM32F1xx_HAL_Driver/Src/stm32f1xx_hal_uart.c ****     /* Process Unlocked */
1336:./Drivers/STM32F1xx_HAL_Driver/Src/stm32f1xx_hal_uart.c ****     __HAL_UNLOCK(huart);
 1233              		.loc 1 1336 5 discriminator 2
 1234 0060 FB68     		ldr	r3, [r7, #12]
 1235 0062 0022     		movs	r2, #0
 1236 0064 83F83C20 		strb	r2, [r3, #60]
1337:./Drivers/STM32F1xx_HAL_Driver/Src/stm32f1xx_hal_uart.c **** 
1338:./Drivers/STM32F1xx_HAL_Driver/Src/stm32f1xx_hal_uart.c ****     /* Enable the UART Transmit data register empty Interrupt */
1339:./Drivers/STM32F1xx_HAL_Driver/Src/stm32f1xx_hal_uart.c ****     __HAL_UART_ENABLE_IT(huart, UART_IT_TXE);
 1237              		.loc 1 1339 5 discriminator 2
 1238 0068 FB68     		ldr	r3, [r7, #12]
 1239 006a 1B68     		ldr	r3, [r3]
 1240 006c DA68     		ldr	r2, [r3, #12]
 1241 006e FB68     		ldr	r3, [r7, #12]
ARM GAS  C:\Users\nguye\AppData\Local\Temp\ccUjla8d.s 			page 46


 1242 0070 1B68     		ldr	r3, [r3]
 1243 0072 42F08002 		orr	r2, r2, #128
 1244 0076 DA60     		str	r2, [r3, #12]
1340:./Drivers/STM32F1xx_HAL_Driver/Src/stm32f1xx_hal_uart.c **** 
1341:./Drivers/STM32F1xx_HAL_Driver/Src/stm32f1xx_hal_uart.c ****     return HAL_OK;
 1245              		.loc 1 1341 12 discriminator 2
 1246 0078 0023     		movs	r3, #0
 1247 007a 00E0     		b	.L56
 1248              	.L53:
1342:./Drivers/STM32F1xx_HAL_Driver/Src/stm32f1xx_hal_uart.c ****   }
1343:./Drivers/STM32F1xx_HAL_Driver/Src/stm32f1xx_hal_uart.c ****   else
1344:./Drivers/STM32F1xx_HAL_Driver/Src/stm32f1xx_hal_uart.c ****   {
1345:./Drivers/STM32F1xx_HAL_Driver/Src/stm32f1xx_hal_uart.c ****     return HAL_BUSY;
 1249              		.loc 1 1345 12
 1250 007c 0223     		movs	r3, #2
 1251              	.L56:
1346:./Drivers/STM32F1xx_HAL_Driver/Src/stm32f1xx_hal_uart.c ****   }
1347:./Drivers/STM32F1xx_HAL_Driver/Src/stm32f1xx_hal_uart.c **** }
 1252              		.loc 1 1347 1
 1253 007e 1846     		mov	r0, r3
 1254 0080 1437     		adds	r7, r7, #20
 1255              		.cfi_def_cfa_offset 4
 1256 0082 BD46     		mov	sp, r7
 1257              		.cfi_def_cfa_register 13
 1258              		@ sp needed
 1259 0084 80BC     		pop	{r7}
 1260              		.cfi_restore 7
 1261              		.cfi_def_cfa_offset 0
 1262 0086 7047     		bx	lr
 1263              		.cfi_endproc
 1264              	.LFE74:
 1266              		.section	.text.HAL_UART_Receive_IT,"ax",%progbits
 1267              		.align	1
 1268              		.global	HAL_UART_Receive_IT
 1269              		.syntax unified
 1270              		.thumb
 1271              		.thumb_func
 1272              		.fpu softvfp
 1274              	HAL_UART_Receive_IT:
 1275              	.LFB75:
1348:./Drivers/STM32F1xx_HAL_Driver/Src/stm32f1xx_hal_uart.c **** 
1349:./Drivers/STM32F1xx_HAL_Driver/Src/stm32f1xx_hal_uart.c **** /**
1350:./Drivers/STM32F1xx_HAL_Driver/Src/stm32f1xx_hal_uart.c ****   * @brief  Receives an amount of data in non blocking mode.
1351:./Drivers/STM32F1xx_HAL_Driver/Src/stm32f1xx_hal_uart.c ****   * @note   When UART parity is not enabled (PCE = 0), and Word Length is configured to 9 bits (M1-
1352:./Drivers/STM32F1xx_HAL_Driver/Src/stm32f1xx_hal_uart.c ****   *         the received data is handled as a set of u16. In this case, Size must indicate the numb
1353:./Drivers/STM32F1xx_HAL_Driver/Src/stm32f1xx_hal_uart.c ****   *         of u16 available through pData.
1354:./Drivers/STM32F1xx_HAL_Driver/Src/stm32f1xx_hal_uart.c ****   * @param  huart Pointer to a UART_HandleTypeDef structure that contains
1355:./Drivers/STM32F1xx_HAL_Driver/Src/stm32f1xx_hal_uart.c ****   *               the configuration information for the specified UART module.
1356:./Drivers/STM32F1xx_HAL_Driver/Src/stm32f1xx_hal_uart.c ****   * @param  pData Pointer to data buffer (u8 or u16 data elements).
1357:./Drivers/STM32F1xx_HAL_Driver/Src/stm32f1xx_hal_uart.c ****   * @param  Size  Amount of data elements (u8 or u16) to be received.
1358:./Drivers/STM32F1xx_HAL_Driver/Src/stm32f1xx_hal_uart.c ****   * @retval HAL status
1359:./Drivers/STM32F1xx_HAL_Driver/Src/stm32f1xx_hal_uart.c ****   */
1360:./Drivers/STM32F1xx_HAL_Driver/Src/stm32f1xx_hal_uart.c **** HAL_StatusTypeDef HAL_UART_Receive_IT(UART_HandleTypeDef *huart, uint8_t *pData, uint16_t Size)
1361:./Drivers/STM32F1xx_HAL_Driver/Src/stm32f1xx_hal_uart.c **** {
 1276              		.loc 1 1361 1
 1277              		.cfi_startproc
 1278              		@ args = 0, pretend = 0, frame = 16
ARM GAS  C:\Users\nguye\AppData\Local\Temp\ccUjla8d.s 			page 47


 1279              		@ frame_needed = 1, uses_anonymous_args = 0
 1280 0000 80B5     		push	{r7, lr}
 1281              		.cfi_def_cfa_offset 8
 1282              		.cfi_offset 7, -8
 1283              		.cfi_offset 14, -4
 1284 0002 84B0     		sub	sp, sp, #16
 1285              		.cfi_def_cfa_offset 24
 1286 0004 00AF     		add	r7, sp, #0
 1287              		.cfi_def_cfa_register 7
 1288 0006 F860     		str	r0, [r7, #12]
 1289 0008 B960     		str	r1, [r7, #8]
 1290 000a 1346     		mov	r3, r2
 1291 000c FB80     		strh	r3, [r7, #6]	@ movhi
1362:./Drivers/STM32F1xx_HAL_Driver/Src/stm32f1xx_hal_uart.c ****   /* Check that a Rx process is not already ongoing */
1363:./Drivers/STM32F1xx_HAL_Driver/Src/stm32f1xx_hal_uart.c ****   if (huart->RxState == HAL_UART_STATE_READY)
 1292              		.loc 1 1363 12
 1293 000e FB68     		ldr	r3, [r7, #12]
 1294 0010 93F83E30 		ldrb	r3, [r3, #62]
 1295 0014 DBB2     		uxtb	r3, r3
 1296              		.loc 1 1363 6
 1297 0016 202B     		cmp	r3, #32
 1298 0018 1DD1     		bne	.L59
1364:./Drivers/STM32F1xx_HAL_Driver/Src/stm32f1xx_hal_uart.c ****   {
1365:./Drivers/STM32F1xx_HAL_Driver/Src/stm32f1xx_hal_uart.c ****     if ((pData == NULL) || (Size == 0U))
 1299              		.loc 1 1365 8
 1300 001a BB68     		ldr	r3, [r7, #8]
 1301 001c 002B     		cmp	r3, #0
 1302 001e 02D0     		beq	.L60
 1303              		.loc 1 1365 25 discriminator 1
 1304 0020 FB88     		ldrh	r3, [r7, #6]
 1305 0022 002B     		cmp	r3, #0
 1306 0024 01D1     		bne	.L61
 1307              	.L60:
1366:./Drivers/STM32F1xx_HAL_Driver/Src/stm32f1xx_hal_uart.c ****     {
1367:./Drivers/STM32F1xx_HAL_Driver/Src/stm32f1xx_hal_uart.c ****       return HAL_ERROR;
 1308              		.loc 1 1367 14
 1309 0026 0123     		movs	r3, #1
 1310 0028 16E0     		b	.L62
 1311              	.L61:
1368:./Drivers/STM32F1xx_HAL_Driver/Src/stm32f1xx_hal_uart.c ****     }
1369:./Drivers/STM32F1xx_HAL_Driver/Src/stm32f1xx_hal_uart.c **** 
1370:./Drivers/STM32F1xx_HAL_Driver/Src/stm32f1xx_hal_uart.c ****     /* Process Locked */
1371:./Drivers/STM32F1xx_HAL_Driver/Src/stm32f1xx_hal_uart.c ****     __HAL_LOCK(huart);
 1312              		.loc 1 1371 5
 1313 002a FB68     		ldr	r3, [r7, #12]
 1314 002c 93F83C30 		ldrb	r3, [r3, #60]	@ zero_extendqisi2
 1315 0030 012B     		cmp	r3, #1
 1316 0032 01D1     		bne	.L63
 1317              		.loc 1 1371 5 is_stmt 0 discriminator 1
 1318 0034 0223     		movs	r3, #2
 1319 0036 0FE0     		b	.L62
 1320              	.L63:
 1321              		.loc 1 1371 5 discriminator 2
 1322 0038 FB68     		ldr	r3, [r7, #12]
 1323 003a 0122     		movs	r2, #1
 1324 003c 83F83C20 		strb	r2, [r3, #60]
1372:./Drivers/STM32F1xx_HAL_Driver/Src/stm32f1xx_hal_uart.c **** 
ARM GAS  C:\Users\nguye\AppData\Local\Temp\ccUjla8d.s 			page 48


1373:./Drivers/STM32F1xx_HAL_Driver/Src/stm32f1xx_hal_uart.c ****     /* Set Reception type to Standard reception */
1374:./Drivers/STM32F1xx_HAL_Driver/Src/stm32f1xx_hal_uart.c ****     huart->ReceptionType = HAL_UART_RECEPTION_STANDARD;
 1325              		.loc 1 1374 26 is_stmt 1 discriminator 2
 1326 0040 FB68     		ldr	r3, [r7, #12]
 1327 0042 0022     		movs	r2, #0
 1328 0044 1A63     		str	r2, [r3, #48]
1375:./Drivers/STM32F1xx_HAL_Driver/Src/stm32f1xx_hal_uart.c **** 
1376:./Drivers/STM32F1xx_HAL_Driver/Src/stm32f1xx_hal_uart.c ****     return(UART_Start_Receive_IT(huart, pData, Size));
 1329              		.loc 1 1376 12 discriminator 2
 1330 0046 FB88     		ldrh	r3, [r7, #6]
 1331 0048 1A46     		mov	r2, r3
 1332 004a B968     		ldr	r1, [r7, #8]
 1333 004c F868     		ldr	r0, [r7, #12]
 1334 004e FFF7FEFF 		bl	UART_Start_Receive_IT
 1335 0052 0346     		mov	r3, r0
 1336 0054 00E0     		b	.L62
 1337              	.L59:
1377:./Drivers/STM32F1xx_HAL_Driver/Src/stm32f1xx_hal_uart.c ****   }
1378:./Drivers/STM32F1xx_HAL_Driver/Src/stm32f1xx_hal_uart.c ****   else
1379:./Drivers/STM32F1xx_HAL_Driver/Src/stm32f1xx_hal_uart.c ****   {
1380:./Drivers/STM32F1xx_HAL_Driver/Src/stm32f1xx_hal_uart.c ****     return HAL_BUSY;
 1338              		.loc 1 1380 12
 1339 0056 0223     		movs	r3, #2
 1340              	.L62:
1381:./Drivers/STM32F1xx_HAL_Driver/Src/stm32f1xx_hal_uart.c ****   }
1382:./Drivers/STM32F1xx_HAL_Driver/Src/stm32f1xx_hal_uart.c **** }
 1341              		.loc 1 1382 1
 1342 0058 1846     		mov	r0, r3
 1343 005a 1037     		adds	r7, r7, #16
 1344              		.cfi_def_cfa_offset 8
 1345 005c BD46     		mov	sp, r7
 1346              		.cfi_def_cfa_register 13
 1347              		@ sp needed
 1348 005e 80BD     		pop	{r7, pc}
 1349              		.cfi_endproc
 1350              	.LFE75:
 1352              		.section	.text.HAL_UART_Transmit_DMA,"ax",%progbits
 1353              		.align	1
 1354              		.global	HAL_UART_Transmit_DMA
 1355              		.syntax unified
 1356              		.thumb
 1357              		.thumb_func
 1358              		.fpu softvfp
 1360              	HAL_UART_Transmit_DMA:
 1361              	.LFB76:
1383:./Drivers/STM32F1xx_HAL_Driver/Src/stm32f1xx_hal_uart.c **** 
1384:./Drivers/STM32F1xx_HAL_Driver/Src/stm32f1xx_hal_uart.c **** /**
1385:./Drivers/STM32F1xx_HAL_Driver/Src/stm32f1xx_hal_uart.c ****   * @brief  Sends an amount of data in DMA mode.
1386:./Drivers/STM32F1xx_HAL_Driver/Src/stm32f1xx_hal_uart.c ****   * @note   When UART parity is not enabled (PCE = 0), and Word Length is configured to 9 bits (M1-
1387:./Drivers/STM32F1xx_HAL_Driver/Src/stm32f1xx_hal_uart.c ****   *         the sent data is handled as a set of u16. In this case, Size must indicate the number
1388:./Drivers/STM32F1xx_HAL_Driver/Src/stm32f1xx_hal_uart.c ****   *         of u16 provided through pData.
1389:./Drivers/STM32F1xx_HAL_Driver/Src/stm32f1xx_hal_uart.c ****   * @param  huart  Pointer to a UART_HandleTypeDef structure that contains
1390:./Drivers/STM32F1xx_HAL_Driver/Src/stm32f1xx_hal_uart.c ****   *                the configuration information for the specified UART module.
1391:./Drivers/STM32F1xx_HAL_Driver/Src/stm32f1xx_hal_uart.c ****   * @param  pData Pointer to data buffer (u8 or u16 data elements).
1392:./Drivers/STM32F1xx_HAL_Driver/Src/stm32f1xx_hal_uart.c ****   * @param  Size  Amount of data elements (u8 or u16) to be sent
1393:./Drivers/STM32F1xx_HAL_Driver/Src/stm32f1xx_hal_uart.c ****   * @retval HAL status
1394:./Drivers/STM32F1xx_HAL_Driver/Src/stm32f1xx_hal_uart.c ****   */
ARM GAS  C:\Users\nguye\AppData\Local\Temp\ccUjla8d.s 			page 49


1395:./Drivers/STM32F1xx_HAL_Driver/Src/stm32f1xx_hal_uart.c **** HAL_StatusTypeDef HAL_UART_Transmit_DMA(UART_HandleTypeDef *huart, uint8_t *pData, uint16_t Size)
1396:./Drivers/STM32F1xx_HAL_Driver/Src/stm32f1xx_hal_uart.c **** {
 1362              		.loc 1 1396 1
 1363              		.cfi_startproc
 1364              		@ args = 0, pretend = 0, frame = 24
 1365              		@ frame_needed = 1, uses_anonymous_args = 0
 1366 0000 80B5     		push	{r7, lr}
 1367              		.cfi_def_cfa_offset 8
 1368              		.cfi_offset 7, -8
 1369              		.cfi_offset 14, -4
 1370 0002 86B0     		sub	sp, sp, #24
 1371              		.cfi_def_cfa_offset 32
 1372 0004 00AF     		add	r7, sp, #0
 1373              		.cfi_def_cfa_register 7
 1374 0006 F860     		str	r0, [r7, #12]
 1375 0008 B960     		str	r1, [r7, #8]
 1376 000a 1346     		mov	r3, r2
 1377 000c FB80     		strh	r3, [r7, #6]	@ movhi
1397:./Drivers/STM32F1xx_HAL_Driver/Src/stm32f1xx_hal_uart.c ****   uint32_t *tmp;
1398:./Drivers/STM32F1xx_HAL_Driver/Src/stm32f1xx_hal_uart.c **** 
1399:./Drivers/STM32F1xx_HAL_Driver/Src/stm32f1xx_hal_uart.c ****   /* Check that a Tx process is not already ongoing */
1400:./Drivers/STM32F1xx_HAL_Driver/Src/stm32f1xx_hal_uart.c ****   if (huart->gState == HAL_UART_STATE_READY)
 1378              		.loc 1 1400 12
 1379 000e FB68     		ldr	r3, [r7, #12]
 1380 0010 93F83D30 		ldrb	r3, [r3, #61]
 1381 0014 DBB2     		uxtb	r3, r3
 1382              		.loc 1 1400 6
 1383 0016 202B     		cmp	r3, #32
 1384 0018 53D1     		bne	.L65
1401:./Drivers/STM32F1xx_HAL_Driver/Src/stm32f1xx_hal_uart.c ****   {
1402:./Drivers/STM32F1xx_HAL_Driver/Src/stm32f1xx_hal_uart.c ****     if ((pData == NULL) || (Size == 0U))
 1385              		.loc 1 1402 16
 1386 001a BB68     		ldr	r3, [r7, #8]
 1387              		.loc 1 1402 8
 1388 001c 002B     		cmp	r3, #0
 1389 001e 02D0     		beq	.L66
 1390              		.loc 1 1402 25 discriminator 1
 1391 0020 FB88     		ldrh	r3, [r7, #6]
 1392 0022 002B     		cmp	r3, #0
 1393 0024 01D1     		bne	.L67
 1394              	.L66:
1403:./Drivers/STM32F1xx_HAL_Driver/Src/stm32f1xx_hal_uart.c ****     {
1404:./Drivers/STM32F1xx_HAL_Driver/Src/stm32f1xx_hal_uart.c ****       return HAL_ERROR;
 1395              		.loc 1 1404 14
 1396 0026 0123     		movs	r3, #1
 1397 0028 4CE0     		b	.L68
 1398              	.L67:
1405:./Drivers/STM32F1xx_HAL_Driver/Src/stm32f1xx_hal_uart.c ****     }
1406:./Drivers/STM32F1xx_HAL_Driver/Src/stm32f1xx_hal_uart.c **** 
1407:./Drivers/STM32F1xx_HAL_Driver/Src/stm32f1xx_hal_uart.c ****     /* Process Locked */
1408:./Drivers/STM32F1xx_HAL_Driver/Src/stm32f1xx_hal_uart.c ****     __HAL_LOCK(huart);
 1399              		.loc 1 1408 5
 1400 002a FB68     		ldr	r3, [r7, #12]
 1401 002c 93F83C30 		ldrb	r3, [r3, #60]	@ zero_extendqisi2
 1402 0030 012B     		cmp	r3, #1
 1403 0032 01D1     		bne	.L69
 1404              		.loc 1 1408 5 is_stmt 0 discriminator 1
ARM GAS  C:\Users\nguye\AppData\Local\Temp\ccUjla8d.s 			page 50


 1405 0034 0223     		movs	r3, #2
 1406 0036 45E0     		b	.L68
 1407              	.L69:
 1408              		.loc 1 1408 5 discriminator 2
 1409 0038 FB68     		ldr	r3, [r7, #12]
 1410 003a 0122     		movs	r2, #1
 1411 003c 83F83C20 		strb	r2, [r3, #60]
1409:./Drivers/STM32F1xx_HAL_Driver/Src/stm32f1xx_hal_uart.c **** 
1410:./Drivers/STM32F1xx_HAL_Driver/Src/stm32f1xx_hal_uart.c ****     huart->pTxBuffPtr = pData;
 1412              		.loc 1 1410 23 is_stmt 1 discriminator 2
 1413 0040 BA68     		ldr	r2, [r7, #8]
 1414 0042 FB68     		ldr	r3, [r7, #12]
 1415 0044 1A62     		str	r2, [r3, #32]
1411:./Drivers/STM32F1xx_HAL_Driver/Src/stm32f1xx_hal_uart.c ****     huart->TxXferSize = Size;
 1416              		.loc 1 1411 23 discriminator 2
 1417 0046 FB68     		ldr	r3, [r7, #12]
 1418 0048 FA88     		ldrh	r2, [r7, #6]	@ movhi
 1419 004a 9A84     		strh	r2, [r3, #36]	@ movhi
1412:./Drivers/STM32F1xx_HAL_Driver/Src/stm32f1xx_hal_uart.c ****     huart->TxXferCount = Size;
 1420              		.loc 1 1412 24 discriminator 2
 1421 004c FB68     		ldr	r3, [r7, #12]
 1422 004e FA88     		ldrh	r2, [r7, #6]	@ movhi
 1423 0050 DA84     		strh	r2, [r3, #38]	@ movhi
1413:./Drivers/STM32F1xx_HAL_Driver/Src/stm32f1xx_hal_uart.c **** 
1414:./Drivers/STM32F1xx_HAL_Driver/Src/stm32f1xx_hal_uart.c ****     huart->ErrorCode = HAL_UART_ERROR_NONE;
 1424              		.loc 1 1414 22 discriminator 2
 1425 0052 FB68     		ldr	r3, [r7, #12]
 1426 0054 0022     		movs	r2, #0
 1427 0056 1A64     		str	r2, [r3, #64]
1415:./Drivers/STM32F1xx_HAL_Driver/Src/stm32f1xx_hal_uart.c ****     huart->gState = HAL_UART_STATE_BUSY_TX;
 1428              		.loc 1 1415 19 discriminator 2
 1429 0058 FB68     		ldr	r3, [r7, #12]
 1430 005a 2122     		movs	r2, #33
 1431 005c 83F83D20 		strb	r2, [r3, #61]
1416:./Drivers/STM32F1xx_HAL_Driver/Src/stm32f1xx_hal_uart.c **** 
1417:./Drivers/STM32F1xx_HAL_Driver/Src/stm32f1xx_hal_uart.c ****     /* Set the UART DMA transfer complete callback */
1418:./Drivers/STM32F1xx_HAL_Driver/Src/stm32f1xx_hal_uart.c ****     huart->hdmatx->XferCpltCallback = UART_DMATransmitCplt;
 1432              		.loc 1 1418 10 discriminator 2
 1433 0060 FB68     		ldr	r3, [r7, #12]
 1434 0062 5B6B     		ldr	r3, [r3, #52]
 1435              		.loc 1 1418 37 discriminator 2
 1436 0064 194A     		ldr	r2, .L70
 1437 0066 9A62     		str	r2, [r3, #40]
1419:./Drivers/STM32F1xx_HAL_Driver/Src/stm32f1xx_hal_uart.c **** 
1420:./Drivers/STM32F1xx_HAL_Driver/Src/stm32f1xx_hal_uart.c ****     /* Set the UART DMA Half transfer complete callback */
1421:./Drivers/STM32F1xx_HAL_Driver/Src/stm32f1xx_hal_uart.c ****     huart->hdmatx->XferHalfCpltCallback = UART_DMATxHalfCplt;
 1438              		.loc 1 1421 10 discriminator 2
 1439 0068 FB68     		ldr	r3, [r7, #12]
 1440 006a 5B6B     		ldr	r3, [r3, #52]
 1441              		.loc 1 1421 41 discriminator 2
 1442 006c 184A     		ldr	r2, .L70+4
 1443 006e DA62     		str	r2, [r3, #44]
1422:./Drivers/STM32F1xx_HAL_Driver/Src/stm32f1xx_hal_uart.c **** 
1423:./Drivers/STM32F1xx_HAL_Driver/Src/stm32f1xx_hal_uart.c ****     /* Set the DMA error callback */
1424:./Drivers/STM32F1xx_HAL_Driver/Src/stm32f1xx_hal_uart.c ****     huart->hdmatx->XferErrorCallback = UART_DMAError;
 1444              		.loc 1 1424 10 discriminator 2
 1445 0070 FB68     		ldr	r3, [r7, #12]
ARM GAS  C:\Users\nguye\AppData\Local\Temp\ccUjla8d.s 			page 51


 1446 0072 5B6B     		ldr	r3, [r3, #52]
 1447              		.loc 1 1424 38 discriminator 2
 1448 0074 174A     		ldr	r2, .L70+8
 1449 0076 1A63     		str	r2, [r3, #48]
1425:./Drivers/STM32F1xx_HAL_Driver/Src/stm32f1xx_hal_uart.c **** 
1426:./Drivers/STM32F1xx_HAL_Driver/Src/stm32f1xx_hal_uart.c ****     /* Set the DMA abort callback */
1427:./Drivers/STM32F1xx_HAL_Driver/Src/stm32f1xx_hal_uart.c ****     huart->hdmatx->XferAbortCallback = NULL;
 1450              		.loc 1 1427 10 discriminator 2
 1451 0078 FB68     		ldr	r3, [r7, #12]
 1452 007a 5B6B     		ldr	r3, [r3, #52]
 1453              		.loc 1 1427 38 discriminator 2
 1454 007c 0022     		movs	r2, #0
 1455 007e 5A63     		str	r2, [r3, #52]
1428:./Drivers/STM32F1xx_HAL_Driver/Src/stm32f1xx_hal_uart.c **** 
1429:./Drivers/STM32F1xx_HAL_Driver/Src/stm32f1xx_hal_uart.c ****     /* Enable the UART transmit DMA channel */
1430:./Drivers/STM32F1xx_HAL_Driver/Src/stm32f1xx_hal_uart.c ****     tmp = (uint32_t *)&pData;
 1456              		.loc 1 1430 9 discriminator 2
 1457 0080 07F10803 		add	r3, r7, #8
 1458 0084 7B61     		str	r3, [r7, #20]
1431:./Drivers/STM32F1xx_HAL_Driver/Src/stm32f1xx_hal_uart.c ****     HAL_DMA_Start_IT(huart->hdmatx, *(uint32_t *)tmp, (uint32_t)&huart->Instance->DR, Size);
 1459              		.loc 1 1431 5 discriminator 2
 1460 0086 FB68     		ldr	r3, [r7, #12]
 1461 0088 586B     		ldr	r0, [r3, #52]
 1462 008a 7B69     		ldr	r3, [r7, #20]
 1463 008c 1968     		ldr	r1, [r3]
 1464              		.loc 1 1431 71 discriminator 2
 1465 008e FB68     		ldr	r3, [r7, #12]
 1466 0090 1B68     		ldr	r3, [r3]
 1467              		.loc 1 1431 65 discriminator 2
 1468 0092 0433     		adds	r3, r3, #4
 1469              		.loc 1 1431 5 discriminator 2
 1470 0094 1A46     		mov	r2, r3
 1471 0096 FB88     		ldrh	r3, [r7, #6]
 1472 0098 FFF7FEFF 		bl	HAL_DMA_Start_IT
1432:./Drivers/STM32F1xx_HAL_Driver/Src/stm32f1xx_hal_uart.c **** 
1433:./Drivers/STM32F1xx_HAL_Driver/Src/stm32f1xx_hal_uart.c ****     /* Clear the TC flag in the SR register by writing 0 to it */
1434:./Drivers/STM32F1xx_HAL_Driver/Src/stm32f1xx_hal_uart.c ****     __HAL_UART_CLEAR_FLAG(huart, UART_FLAG_TC);
 1473              		.loc 1 1434 5 discriminator 2
 1474 009c FB68     		ldr	r3, [r7, #12]
 1475 009e 1B68     		ldr	r3, [r3]
 1476 00a0 6FF04002 		mvn	r2, #64
 1477 00a4 1A60     		str	r2, [r3]
1435:./Drivers/STM32F1xx_HAL_Driver/Src/stm32f1xx_hal_uart.c **** 
1436:./Drivers/STM32F1xx_HAL_Driver/Src/stm32f1xx_hal_uart.c ****     /* Process Unlocked */
1437:./Drivers/STM32F1xx_HAL_Driver/Src/stm32f1xx_hal_uart.c ****     __HAL_UNLOCK(huart);
 1478              		.loc 1 1437 5 discriminator 2
 1479 00a6 FB68     		ldr	r3, [r7, #12]
 1480 00a8 0022     		movs	r2, #0
 1481 00aa 83F83C20 		strb	r2, [r3, #60]
1438:./Drivers/STM32F1xx_HAL_Driver/Src/stm32f1xx_hal_uart.c **** 
1439:./Drivers/STM32F1xx_HAL_Driver/Src/stm32f1xx_hal_uart.c ****     /* Enable the DMA transfer for transmit request by setting the DMAT bit
1440:./Drivers/STM32F1xx_HAL_Driver/Src/stm32f1xx_hal_uart.c ****        in the UART CR3 register */
1441:./Drivers/STM32F1xx_HAL_Driver/Src/stm32f1xx_hal_uart.c ****     SET_BIT(huart->Instance->CR3, USART_CR3_DMAT);
 1482              		.loc 1 1441 5 discriminator 2
 1483 00ae FB68     		ldr	r3, [r7, #12]
 1484 00b0 1B68     		ldr	r3, [r3]
 1485 00b2 5A69     		ldr	r2, [r3, #20]
ARM GAS  C:\Users\nguye\AppData\Local\Temp\ccUjla8d.s 			page 52


 1486 00b4 FB68     		ldr	r3, [r7, #12]
 1487 00b6 1B68     		ldr	r3, [r3]
 1488 00b8 42F08002 		orr	r2, r2, #128
 1489 00bc 5A61     		str	r2, [r3, #20]
1442:./Drivers/STM32F1xx_HAL_Driver/Src/stm32f1xx_hal_uart.c **** 
1443:./Drivers/STM32F1xx_HAL_Driver/Src/stm32f1xx_hal_uart.c ****     return HAL_OK;
 1490              		.loc 1 1443 12 discriminator 2
 1491 00be 0023     		movs	r3, #0
 1492 00c0 00E0     		b	.L68
 1493              	.L65:
1444:./Drivers/STM32F1xx_HAL_Driver/Src/stm32f1xx_hal_uart.c ****   }
1445:./Drivers/STM32F1xx_HAL_Driver/Src/stm32f1xx_hal_uart.c ****   else
1446:./Drivers/STM32F1xx_HAL_Driver/Src/stm32f1xx_hal_uart.c ****   {
1447:./Drivers/STM32F1xx_HAL_Driver/Src/stm32f1xx_hal_uart.c ****     return HAL_BUSY;
 1494              		.loc 1 1447 12
 1495 00c2 0223     		movs	r3, #2
 1496              	.L68:
1448:./Drivers/STM32F1xx_HAL_Driver/Src/stm32f1xx_hal_uart.c ****   }
1449:./Drivers/STM32F1xx_HAL_Driver/Src/stm32f1xx_hal_uart.c **** }
 1497              		.loc 1 1449 1
 1498 00c4 1846     		mov	r0, r3
 1499 00c6 1837     		adds	r7, r7, #24
 1500              		.cfi_def_cfa_offset 8
 1501 00c8 BD46     		mov	sp, r7
 1502              		.cfi_def_cfa_register 13
 1503              		@ sp needed
 1504 00ca 80BD     		pop	{r7, pc}
 1505              	.L71:
 1506              		.align	2
 1507              	.L70:
 1508 00cc 00000000 		.word	UART_DMATransmitCplt
 1509 00d0 00000000 		.word	UART_DMATxHalfCplt
 1510 00d4 00000000 		.word	UART_DMAError
 1511              		.cfi_endproc
 1512              	.LFE76:
 1514              		.section	.text.HAL_UART_Receive_DMA,"ax",%progbits
 1515              		.align	1
 1516              		.global	HAL_UART_Receive_DMA
 1517              		.syntax unified
 1518              		.thumb
 1519              		.thumb_func
 1520              		.fpu softvfp
 1522              	HAL_UART_Receive_DMA:
 1523              	.LFB77:
1450:./Drivers/STM32F1xx_HAL_Driver/Src/stm32f1xx_hal_uart.c **** 
1451:./Drivers/STM32F1xx_HAL_Driver/Src/stm32f1xx_hal_uart.c **** /**
1452:./Drivers/STM32F1xx_HAL_Driver/Src/stm32f1xx_hal_uart.c ****   * @brief  Receives an amount of data in DMA mode.
1453:./Drivers/STM32F1xx_HAL_Driver/Src/stm32f1xx_hal_uart.c ****   * @note   When UART parity is not enabled (PCE = 0), and Word Length is configured to 9 bits (M1-
1454:./Drivers/STM32F1xx_HAL_Driver/Src/stm32f1xx_hal_uart.c ****   *         the received data is handled as a set of u16. In this case, Size must indicate the numb
1455:./Drivers/STM32F1xx_HAL_Driver/Src/stm32f1xx_hal_uart.c ****   *         of u16 available through pData.
1456:./Drivers/STM32F1xx_HAL_Driver/Src/stm32f1xx_hal_uart.c ****   * @param  huart Pointer to a UART_HandleTypeDef structure that contains
1457:./Drivers/STM32F1xx_HAL_Driver/Src/stm32f1xx_hal_uart.c ****   *               the configuration information for the specified UART module.
1458:./Drivers/STM32F1xx_HAL_Driver/Src/stm32f1xx_hal_uart.c ****   * @param  pData Pointer to data buffer (u8 or u16 data elements).
1459:./Drivers/STM32F1xx_HAL_Driver/Src/stm32f1xx_hal_uart.c ****   * @param  Size  Amount of data elements (u8 or u16) to be received.
1460:./Drivers/STM32F1xx_HAL_Driver/Src/stm32f1xx_hal_uart.c ****   * @note   When the UART parity is enabled (PCE = 1) the received data contains the parity bit.
1461:./Drivers/STM32F1xx_HAL_Driver/Src/stm32f1xx_hal_uart.c ****   * @retval HAL status
1462:./Drivers/STM32F1xx_HAL_Driver/Src/stm32f1xx_hal_uart.c ****   */
ARM GAS  C:\Users\nguye\AppData\Local\Temp\ccUjla8d.s 			page 53


1463:./Drivers/STM32F1xx_HAL_Driver/Src/stm32f1xx_hal_uart.c **** HAL_StatusTypeDef HAL_UART_Receive_DMA(UART_HandleTypeDef *huart, uint8_t *pData, uint16_t Size)
1464:./Drivers/STM32F1xx_HAL_Driver/Src/stm32f1xx_hal_uart.c **** {
 1524              		.loc 1 1464 1
 1525              		.cfi_startproc
 1526              		@ args = 0, pretend = 0, frame = 16
 1527              		@ frame_needed = 1, uses_anonymous_args = 0
 1528 0000 80B5     		push	{r7, lr}
 1529              		.cfi_def_cfa_offset 8
 1530              		.cfi_offset 7, -8
 1531              		.cfi_offset 14, -4
 1532 0002 84B0     		sub	sp, sp, #16
 1533              		.cfi_def_cfa_offset 24
 1534 0004 00AF     		add	r7, sp, #0
 1535              		.cfi_def_cfa_register 7
 1536 0006 F860     		str	r0, [r7, #12]
 1537 0008 B960     		str	r1, [r7, #8]
 1538 000a 1346     		mov	r3, r2
 1539 000c FB80     		strh	r3, [r7, #6]	@ movhi
1465:./Drivers/STM32F1xx_HAL_Driver/Src/stm32f1xx_hal_uart.c ****   /* Check that a Rx process is not already ongoing */
1466:./Drivers/STM32F1xx_HAL_Driver/Src/stm32f1xx_hal_uart.c ****   if (huart->RxState == HAL_UART_STATE_READY)
 1540              		.loc 1 1466 12
 1541 000e FB68     		ldr	r3, [r7, #12]
 1542 0010 93F83E30 		ldrb	r3, [r3, #62]
 1543 0014 DBB2     		uxtb	r3, r3
 1544              		.loc 1 1466 6
 1545 0016 202B     		cmp	r3, #32
 1546 0018 1DD1     		bne	.L73
1467:./Drivers/STM32F1xx_HAL_Driver/Src/stm32f1xx_hal_uart.c ****   {
1468:./Drivers/STM32F1xx_HAL_Driver/Src/stm32f1xx_hal_uart.c ****     if ((pData == NULL) || (Size == 0U))
 1547              		.loc 1 1468 8
 1548 001a BB68     		ldr	r3, [r7, #8]
 1549 001c 002B     		cmp	r3, #0
 1550 001e 02D0     		beq	.L74
 1551              		.loc 1 1468 25 discriminator 1
 1552 0020 FB88     		ldrh	r3, [r7, #6]
 1553 0022 002B     		cmp	r3, #0
 1554 0024 01D1     		bne	.L75
 1555              	.L74:
1469:./Drivers/STM32F1xx_HAL_Driver/Src/stm32f1xx_hal_uart.c ****     {
1470:./Drivers/STM32F1xx_HAL_Driver/Src/stm32f1xx_hal_uart.c ****       return HAL_ERROR;
 1556              		.loc 1 1470 14
 1557 0026 0123     		movs	r3, #1
 1558 0028 16E0     		b	.L76
 1559              	.L75:
1471:./Drivers/STM32F1xx_HAL_Driver/Src/stm32f1xx_hal_uart.c ****     }
1472:./Drivers/STM32F1xx_HAL_Driver/Src/stm32f1xx_hal_uart.c **** 
1473:./Drivers/STM32F1xx_HAL_Driver/Src/stm32f1xx_hal_uart.c ****     /* Process Locked */
1474:./Drivers/STM32F1xx_HAL_Driver/Src/stm32f1xx_hal_uart.c ****     __HAL_LOCK(huart);
 1560              		.loc 1 1474 5
 1561 002a FB68     		ldr	r3, [r7, #12]
 1562 002c 93F83C30 		ldrb	r3, [r3, #60]	@ zero_extendqisi2
 1563 0030 012B     		cmp	r3, #1
 1564 0032 01D1     		bne	.L77
 1565              		.loc 1 1474 5 is_stmt 0 discriminator 1
 1566 0034 0223     		movs	r3, #2
 1567 0036 0FE0     		b	.L76
 1568              	.L77:
ARM GAS  C:\Users\nguye\AppData\Local\Temp\ccUjla8d.s 			page 54


 1569              		.loc 1 1474 5 discriminator 2
 1570 0038 FB68     		ldr	r3, [r7, #12]
 1571 003a 0122     		movs	r2, #1
 1572 003c 83F83C20 		strb	r2, [r3, #60]
1475:./Drivers/STM32F1xx_HAL_Driver/Src/stm32f1xx_hal_uart.c **** 
1476:./Drivers/STM32F1xx_HAL_Driver/Src/stm32f1xx_hal_uart.c ****     /* Set Reception type to Standard reception */
1477:./Drivers/STM32F1xx_HAL_Driver/Src/stm32f1xx_hal_uart.c ****     huart->ReceptionType = HAL_UART_RECEPTION_STANDARD;
 1573              		.loc 1 1477 26 is_stmt 1 discriminator 2
 1574 0040 FB68     		ldr	r3, [r7, #12]
 1575 0042 0022     		movs	r2, #0
 1576 0044 1A63     		str	r2, [r3, #48]
1478:./Drivers/STM32F1xx_HAL_Driver/Src/stm32f1xx_hal_uart.c **** 
1479:./Drivers/STM32F1xx_HAL_Driver/Src/stm32f1xx_hal_uart.c ****     return(UART_Start_Receive_DMA(huart, pData, Size));
 1577              		.loc 1 1479 12 discriminator 2
 1578 0046 FB88     		ldrh	r3, [r7, #6]
 1579 0048 1A46     		mov	r2, r3
 1580 004a B968     		ldr	r1, [r7, #8]
 1581 004c F868     		ldr	r0, [r7, #12]
 1582 004e FFF7FEFF 		bl	UART_Start_Receive_DMA
 1583 0052 0346     		mov	r3, r0
 1584 0054 00E0     		b	.L76
 1585              	.L73:
1480:./Drivers/STM32F1xx_HAL_Driver/Src/stm32f1xx_hal_uart.c ****   }
1481:./Drivers/STM32F1xx_HAL_Driver/Src/stm32f1xx_hal_uart.c ****   else
1482:./Drivers/STM32F1xx_HAL_Driver/Src/stm32f1xx_hal_uart.c ****   {
1483:./Drivers/STM32F1xx_HAL_Driver/Src/stm32f1xx_hal_uart.c ****     return HAL_BUSY;
 1586              		.loc 1 1483 12
 1587 0056 0223     		movs	r3, #2
 1588              	.L76:
1484:./Drivers/STM32F1xx_HAL_Driver/Src/stm32f1xx_hal_uart.c ****   }
1485:./Drivers/STM32F1xx_HAL_Driver/Src/stm32f1xx_hal_uart.c **** }
 1589              		.loc 1 1485 1
 1590 0058 1846     		mov	r0, r3
 1591 005a 1037     		adds	r7, r7, #16
 1592              		.cfi_def_cfa_offset 8
 1593 005c BD46     		mov	sp, r7
 1594              		.cfi_def_cfa_register 13
 1595              		@ sp needed
 1596 005e 80BD     		pop	{r7, pc}
 1597              		.cfi_endproc
 1598              	.LFE77:
 1600              		.section	.text.HAL_UART_DMAPause,"ax",%progbits
 1601              		.align	1
 1602              		.global	HAL_UART_DMAPause
 1603              		.syntax unified
 1604              		.thumb
 1605              		.thumb_func
 1606              		.fpu softvfp
 1608              	HAL_UART_DMAPause:
 1609              	.LFB78:
1486:./Drivers/STM32F1xx_HAL_Driver/Src/stm32f1xx_hal_uart.c **** 
1487:./Drivers/STM32F1xx_HAL_Driver/Src/stm32f1xx_hal_uart.c **** /**
1488:./Drivers/STM32F1xx_HAL_Driver/Src/stm32f1xx_hal_uart.c ****   * @brief Pauses the DMA Transfer.
1489:./Drivers/STM32F1xx_HAL_Driver/Src/stm32f1xx_hal_uart.c ****   * @param  huart  Pointer to a UART_HandleTypeDef structure that contains
1490:./Drivers/STM32F1xx_HAL_Driver/Src/stm32f1xx_hal_uart.c ****   *                the configuration information for the specified UART module.
1491:./Drivers/STM32F1xx_HAL_Driver/Src/stm32f1xx_hal_uart.c ****   * @retval HAL status
1492:./Drivers/STM32F1xx_HAL_Driver/Src/stm32f1xx_hal_uart.c ****   */
ARM GAS  C:\Users\nguye\AppData\Local\Temp\ccUjla8d.s 			page 55


1493:./Drivers/STM32F1xx_HAL_Driver/Src/stm32f1xx_hal_uart.c **** HAL_StatusTypeDef HAL_UART_DMAPause(UART_HandleTypeDef *huart)
1494:./Drivers/STM32F1xx_HAL_Driver/Src/stm32f1xx_hal_uart.c **** {
 1610              		.loc 1 1494 1
 1611              		.cfi_startproc
 1612              		@ args = 0, pretend = 0, frame = 16
 1613              		@ frame_needed = 1, uses_anonymous_args = 0
 1614              		@ link register save eliminated.
 1615 0000 80B4     		push	{r7}
 1616              		.cfi_def_cfa_offset 4
 1617              		.cfi_offset 7, -4
 1618 0002 85B0     		sub	sp, sp, #20
 1619              		.cfi_def_cfa_offset 24
 1620 0004 00AF     		add	r7, sp, #0
 1621              		.cfi_def_cfa_register 7
 1622 0006 7860     		str	r0, [r7, #4]
1495:./Drivers/STM32F1xx_HAL_Driver/Src/stm32f1xx_hal_uart.c ****   uint32_t dmarequest = 0x00U;
 1623              		.loc 1 1495 12
 1624 0008 0023     		movs	r3, #0
 1625 000a FB60     		str	r3, [r7, #12]
1496:./Drivers/STM32F1xx_HAL_Driver/Src/stm32f1xx_hal_uart.c **** 
1497:./Drivers/STM32F1xx_HAL_Driver/Src/stm32f1xx_hal_uart.c ****   /* Process Locked */
1498:./Drivers/STM32F1xx_HAL_Driver/Src/stm32f1xx_hal_uart.c ****   __HAL_LOCK(huart);
 1626              		.loc 1 1498 3
 1627 000c 7B68     		ldr	r3, [r7, #4]
 1628 000e 93F83C30 		ldrb	r3, [r3, #60]	@ zero_extendqisi2
 1629 0012 012B     		cmp	r3, #1
 1630 0014 01D1     		bne	.L79
 1631              		.loc 1 1498 3 is_stmt 0 discriminator 1
 1632 0016 0223     		movs	r3, #2
 1633 0018 50E0     		b	.L80
 1634              	.L79:
 1635              		.loc 1 1498 3 discriminator 2
 1636 001a 7B68     		ldr	r3, [r7, #4]
 1637 001c 0122     		movs	r2, #1
 1638 001e 83F83C20 		strb	r2, [r3, #60]
1499:./Drivers/STM32F1xx_HAL_Driver/Src/stm32f1xx_hal_uart.c **** 
1500:./Drivers/STM32F1xx_HAL_Driver/Src/stm32f1xx_hal_uart.c ****   dmarequest = HAL_IS_BIT_SET(huart->Instance->CR3, USART_CR3_DMAT);
 1639              		.loc 1 1500 16 is_stmt 1 discriminator 2
 1640 0022 7B68     		ldr	r3, [r7, #4]
 1641 0024 1B68     		ldr	r3, [r3]
 1642 0026 5B69     		ldr	r3, [r3, #20]
 1643 0028 03F08003 		and	r3, r3, #128
 1644 002c 002B     		cmp	r3, #0
 1645 002e 14BF     		ite	ne
 1646 0030 0123     		movne	r3, #1
 1647 0032 0023     		moveq	r3, #0
 1648 0034 DBB2     		uxtb	r3, r3
 1649              		.loc 1 1500 14 discriminator 2
 1650 0036 FB60     		str	r3, [r7, #12]
1501:./Drivers/STM32F1xx_HAL_Driver/Src/stm32f1xx_hal_uart.c ****   if ((huart->gState == HAL_UART_STATE_BUSY_TX) && dmarequest)
 1651              		.loc 1 1501 13 discriminator 2
 1652 0038 7B68     		ldr	r3, [r7, #4]
 1653 003a 93F83D30 		ldrb	r3, [r3, #61]
 1654 003e DBB2     		uxtb	r3, r3
 1655              		.loc 1 1501 6 discriminator 2
 1656 0040 212B     		cmp	r3, #33
 1657 0042 0AD1     		bne	.L81
ARM GAS  C:\Users\nguye\AppData\Local\Temp\ccUjla8d.s 			page 56


 1658              		.loc 1 1501 49 discriminator 1
 1659 0044 FB68     		ldr	r3, [r7, #12]
 1660 0046 002B     		cmp	r3, #0
 1661 0048 07D0     		beq	.L81
1502:./Drivers/STM32F1xx_HAL_Driver/Src/stm32f1xx_hal_uart.c ****   {
1503:./Drivers/STM32F1xx_HAL_Driver/Src/stm32f1xx_hal_uart.c ****     /* Disable the UART DMA Tx request */
1504:./Drivers/STM32F1xx_HAL_Driver/Src/stm32f1xx_hal_uart.c ****     CLEAR_BIT(huart->Instance->CR3, USART_CR3_DMAT);
 1662              		.loc 1 1504 5
 1663 004a 7B68     		ldr	r3, [r7, #4]
 1664 004c 1B68     		ldr	r3, [r3]
 1665 004e 5A69     		ldr	r2, [r3, #20]
 1666 0050 7B68     		ldr	r3, [r7, #4]
 1667 0052 1B68     		ldr	r3, [r3]
 1668 0054 22F08002 		bic	r2, r2, #128
 1669 0058 5A61     		str	r2, [r3, #20]
 1670              	.L81:
1505:./Drivers/STM32F1xx_HAL_Driver/Src/stm32f1xx_hal_uart.c ****   }
1506:./Drivers/STM32F1xx_HAL_Driver/Src/stm32f1xx_hal_uart.c **** 
1507:./Drivers/STM32F1xx_HAL_Driver/Src/stm32f1xx_hal_uart.c ****   dmarequest = HAL_IS_BIT_SET(huart->Instance->CR3, USART_CR3_DMAR);
 1671              		.loc 1 1507 16
 1672 005a 7B68     		ldr	r3, [r7, #4]
 1673 005c 1B68     		ldr	r3, [r3]
 1674 005e 5B69     		ldr	r3, [r3, #20]
 1675 0060 03F04003 		and	r3, r3, #64
 1676 0064 002B     		cmp	r3, #0
 1677 0066 14BF     		ite	ne
 1678 0068 0123     		movne	r3, #1
 1679 006a 0023     		moveq	r3, #0
 1680 006c DBB2     		uxtb	r3, r3
 1681              		.loc 1 1507 14
 1682 006e FB60     		str	r3, [r7, #12]
1508:./Drivers/STM32F1xx_HAL_Driver/Src/stm32f1xx_hal_uart.c ****   if ((huart->RxState == HAL_UART_STATE_BUSY_RX) && dmarequest)
 1683              		.loc 1 1508 13
 1684 0070 7B68     		ldr	r3, [r7, #4]
 1685 0072 93F83E30 		ldrb	r3, [r3, #62]
 1686 0076 DBB2     		uxtb	r3, r3
 1687              		.loc 1 1508 6
 1688 0078 222B     		cmp	r3, #34
 1689 007a 1AD1     		bne	.L82
 1690              		.loc 1 1508 50 discriminator 1
 1691 007c FB68     		ldr	r3, [r7, #12]
 1692 007e 002B     		cmp	r3, #0
 1693 0080 17D0     		beq	.L82
1509:./Drivers/STM32F1xx_HAL_Driver/Src/stm32f1xx_hal_uart.c ****   {
1510:./Drivers/STM32F1xx_HAL_Driver/Src/stm32f1xx_hal_uart.c ****     /* Disable RXNE, PE and ERR (Frame error, noise error, overrun error) interrupts */
1511:./Drivers/STM32F1xx_HAL_Driver/Src/stm32f1xx_hal_uart.c ****     CLEAR_BIT(huart->Instance->CR1, USART_CR1_PEIE);
 1694              		.loc 1 1511 5
 1695 0082 7B68     		ldr	r3, [r7, #4]
 1696 0084 1B68     		ldr	r3, [r3]
 1697 0086 DA68     		ldr	r2, [r3, #12]
 1698 0088 7B68     		ldr	r3, [r7, #4]
 1699 008a 1B68     		ldr	r3, [r3]
 1700 008c 22F48072 		bic	r2, r2, #256
 1701 0090 DA60     		str	r2, [r3, #12]
1512:./Drivers/STM32F1xx_HAL_Driver/Src/stm32f1xx_hal_uart.c ****     CLEAR_BIT(huart->Instance->CR3, USART_CR3_EIE);
 1702              		.loc 1 1512 5
 1703 0092 7B68     		ldr	r3, [r7, #4]
ARM GAS  C:\Users\nguye\AppData\Local\Temp\ccUjla8d.s 			page 57


 1704 0094 1B68     		ldr	r3, [r3]
 1705 0096 5A69     		ldr	r2, [r3, #20]
 1706 0098 7B68     		ldr	r3, [r7, #4]
 1707 009a 1B68     		ldr	r3, [r3]
 1708 009c 22F00102 		bic	r2, r2, #1
 1709 00a0 5A61     		str	r2, [r3, #20]
1513:./Drivers/STM32F1xx_HAL_Driver/Src/stm32f1xx_hal_uart.c **** 
1514:./Drivers/STM32F1xx_HAL_Driver/Src/stm32f1xx_hal_uart.c ****     /* Disable the UART DMA Rx request */
1515:./Drivers/STM32F1xx_HAL_Driver/Src/stm32f1xx_hal_uart.c ****     CLEAR_BIT(huart->Instance->CR3, USART_CR3_DMAR);
 1710              		.loc 1 1515 5
 1711 00a2 7B68     		ldr	r3, [r7, #4]
 1712 00a4 1B68     		ldr	r3, [r3]
 1713 00a6 5A69     		ldr	r2, [r3, #20]
 1714 00a8 7B68     		ldr	r3, [r7, #4]
 1715 00aa 1B68     		ldr	r3, [r3]
 1716 00ac 22F04002 		bic	r2, r2, #64
 1717 00b0 5A61     		str	r2, [r3, #20]
 1718              	.L82:
1516:./Drivers/STM32F1xx_HAL_Driver/Src/stm32f1xx_hal_uart.c ****   }
1517:./Drivers/STM32F1xx_HAL_Driver/Src/stm32f1xx_hal_uart.c **** 
1518:./Drivers/STM32F1xx_HAL_Driver/Src/stm32f1xx_hal_uart.c ****   /* Process Unlocked */
1519:./Drivers/STM32F1xx_HAL_Driver/Src/stm32f1xx_hal_uart.c ****   __HAL_UNLOCK(huart);
 1719              		.loc 1 1519 3
 1720 00b2 7B68     		ldr	r3, [r7, #4]
 1721 00b4 0022     		movs	r2, #0
 1722 00b6 83F83C20 		strb	r2, [r3, #60]
1520:./Drivers/STM32F1xx_HAL_Driver/Src/stm32f1xx_hal_uart.c **** 
1521:./Drivers/STM32F1xx_HAL_Driver/Src/stm32f1xx_hal_uart.c ****   return HAL_OK;
 1723              		.loc 1 1521 10
 1724 00ba 0023     		movs	r3, #0
 1725              	.L80:
1522:./Drivers/STM32F1xx_HAL_Driver/Src/stm32f1xx_hal_uart.c **** }
 1726              		.loc 1 1522 1
 1727 00bc 1846     		mov	r0, r3
 1728 00be 1437     		adds	r7, r7, #20
 1729              		.cfi_def_cfa_offset 4
 1730 00c0 BD46     		mov	sp, r7
 1731              		.cfi_def_cfa_register 13
 1732              		@ sp needed
 1733 00c2 80BC     		pop	{r7}
 1734              		.cfi_restore 7
 1735              		.cfi_def_cfa_offset 0
 1736 00c4 7047     		bx	lr
 1737              		.cfi_endproc
 1738              	.LFE78:
 1740              		.section	.text.HAL_UART_DMAResume,"ax",%progbits
 1741              		.align	1
 1742              		.global	HAL_UART_DMAResume
 1743              		.syntax unified
 1744              		.thumb
 1745              		.thumb_func
 1746              		.fpu softvfp
 1748              	HAL_UART_DMAResume:
 1749              	.LFB79:
1523:./Drivers/STM32F1xx_HAL_Driver/Src/stm32f1xx_hal_uart.c **** 
1524:./Drivers/STM32F1xx_HAL_Driver/Src/stm32f1xx_hal_uart.c **** /**
1525:./Drivers/STM32F1xx_HAL_Driver/Src/stm32f1xx_hal_uart.c ****   * @brief Resumes the DMA Transfer.
ARM GAS  C:\Users\nguye\AppData\Local\Temp\ccUjla8d.s 			page 58


1526:./Drivers/STM32F1xx_HAL_Driver/Src/stm32f1xx_hal_uart.c ****   * @param  huart  Pointer to a UART_HandleTypeDef structure that contains
1527:./Drivers/STM32F1xx_HAL_Driver/Src/stm32f1xx_hal_uart.c ****   *                the configuration information for the specified UART module.
1528:./Drivers/STM32F1xx_HAL_Driver/Src/stm32f1xx_hal_uart.c ****   * @retval HAL status
1529:./Drivers/STM32F1xx_HAL_Driver/Src/stm32f1xx_hal_uart.c ****   */
1530:./Drivers/STM32F1xx_HAL_Driver/Src/stm32f1xx_hal_uart.c **** HAL_StatusTypeDef HAL_UART_DMAResume(UART_HandleTypeDef *huart)
1531:./Drivers/STM32F1xx_HAL_Driver/Src/stm32f1xx_hal_uart.c **** {
 1750              		.loc 1 1531 1
 1751              		.cfi_startproc
 1752              		@ args = 0, pretend = 0, frame = 16
 1753              		@ frame_needed = 1, uses_anonymous_args = 0
 1754              		@ link register save eliminated.
 1755 0000 80B4     		push	{r7}
 1756              		.cfi_def_cfa_offset 4
 1757              		.cfi_offset 7, -4
 1758 0002 85B0     		sub	sp, sp, #20
 1759              		.cfi_def_cfa_offset 24
 1760 0004 00AF     		add	r7, sp, #0
 1761              		.cfi_def_cfa_register 7
 1762 0006 7860     		str	r0, [r7, #4]
1532:./Drivers/STM32F1xx_HAL_Driver/Src/stm32f1xx_hal_uart.c ****   /* Process Locked */
1533:./Drivers/STM32F1xx_HAL_Driver/Src/stm32f1xx_hal_uart.c ****   __HAL_LOCK(huart);
 1763              		.loc 1 1533 3
 1764 0008 7B68     		ldr	r3, [r7, #4]
 1765 000a 93F83C30 		ldrb	r3, [r3, #60]	@ zero_extendqisi2
 1766 000e 012B     		cmp	r3, #1
 1767 0010 01D1     		bne	.L84
 1768              		.loc 1 1533 3 is_stmt 0 discriminator 1
 1769 0012 0223     		movs	r3, #2
 1770 0014 3FE0     		b	.L85
 1771              	.L84:
 1772              		.loc 1 1533 3 discriminator 2
 1773 0016 7B68     		ldr	r3, [r7, #4]
 1774 0018 0122     		movs	r2, #1
 1775 001a 83F83C20 		strb	r2, [r3, #60]
1534:./Drivers/STM32F1xx_HAL_Driver/Src/stm32f1xx_hal_uart.c **** 
1535:./Drivers/STM32F1xx_HAL_Driver/Src/stm32f1xx_hal_uart.c ****   if (huart->gState == HAL_UART_STATE_BUSY_TX)
 1776              		.loc 1 1535 12 is_stmt 1 discriminator 2
 1777 001e 7B68     		ldr	r3, [r7, #4]
 1778 0020 93F83D30 		ldrb	r3, [r3, #61]
 1779 0024 DBB2     		uxtb	r3, r3
 1780              		.loc 1 1535 6 discriminator 2
 1781 0026 212B     		cmp	r3, #33
 1782 0028 07D1     		bne	.L86
1536:./Drivers/STM32F1xx_HAL_Driver/Src/stm32f1xx_hal_uart.c ****   {
1537:./Drivers/STM32F1xx_HAL_Driver/Src/stm32f1xx_hal_uart.c ****     /* Enable the UART DMA Tx request */
1538:./Drivers/STM32F1xx_HAL_Driver/Src/stm32f1xx_hal_uart.c ****     SET_BIT(huart->Instance->CR3, USART_CR3_DMAT);
 1783              		.loc 1 1538 5
 1784 002a 7B68     		ldr	r3, [r7, #4]
 1785 002c 1B68     		ldr	r3, [r3]
 1786 002e 5A69     		ldr	r2, [r3, #20]
 1787 0030 7B68     		ldr	r3, [r7, #4]
 1788 0032 1B68     		ldr	r3, [r3]
 1789 0034 42F08002 		orr	r2, r2, #128
 1790 0038 5A61     		str	r2, [r3, #20]
 1791              	.L86:
1539:./Drivers/STM32F1xx_HAL_Driver/Src/stm32f1xx_hal_uart.c ****   }
1540:./Drivers/STM32F1xx_HAL_Driver/Src/stm32f1xx_hal_uart.c **** 
ARM GAS  C:\Users\nguye\AppData\Local\Temp\ccUjla8d.s 			page 59


1541:./Drivers/STM32F1xx_HAL_Driver/Src/stm32f1xx_hal_uart.c ****   if (huart->RxState == HAL_UART_STATE_BUSY_RX)
 1792              		.loc 1 1541 12
 1793 003a 7B68     		ldr	r3, [r7, #4]
 1794 003c 93F83E30 		ldrb	r3, [r3, #62]
 1795 0040 DBB2     		uxtb	r3, r3
 1796              		.loc 1 1541 6
 1797 0042 222B     		cmp	r3, #34
 1798 0044 22D1     		bne	.L87
 1799              	.LBB2:
1542:./Drivers/STM32F1xx_HAL_Driver/Src/stm32f1xx_hal_uart.c ****   {
1543:./Drivers/STM32F1xx_HAL_Driver/Src/stm32f1xx_hal_uart.c ****     /* Clear the Overrun flag before resuming the Rx transfer*/
1544:./Drivers/STM32F1xx_HAL_Driver/Src/stm32f1xx_hal_uart.c ****     __HAL_UART_CLEAR_OREFLAG(huart);
 1800              		.loc 1 1544 5
 1801 0046 0023     		movs	r3, #0
 1802 0048 FB60     		str	r3, [r7, #12]
 1803 004a 7B68     		ldr	r3, [r7, #4]
 1804 004c 1B68     		ldr	r3, [r3]
 1805 004e 1B68     		ldr	r3, [r3]
 1806 0050 FB60     		str	r3, [r7, #12]
 1807 0052 7B68     		ldr	r3, [r7, #4]
 1808 0054 1B68     		ldr	r3, [r3]
 1809 0056 5B68     		ldr	r3, [r3, #4]
 1810 0058 FB60     		str	r3, [r7, #12]
 1811 005a FB68     		ldr	r3, [r7, #12]
 1812              	.LBE2:
1545:./Drivers/STM32F1xx_HAL_Driver/Src/stm32f1xx_hal_uart.c **** 
1546:./Drivers/STM32F1xx_HAL_Driver/Src/stm32f1xx_hal_uart.c ****     /* Re-enable PE and ERR (Frame error, noise error, overrun error) interrupts */
1547:./Drivers/STM32F1xx_HAL_Driver/Src/stm32f1xx_hal_uart.c ****     SET_BIT(huart->Instance->CR1, USART_CR1_PEIE);
 1813              		.loc 1 1547 5
 1814 005c 7B68     		ldr	r3, [r7, #4]
 1815 005e 1B68     		ldr	r3, [r3]
 1816 0060 DA68     		ldr	r2, [r3, #12]
 1817 0062 7B68     		ldr	r3, [r7, #4]
 1818 0064 1B68     		ldr	r3, [r3]
 1819 0066 42F48072 		orr	r2, r2, #256
 1820 006a DA60     		str	r2, [r3, #12]
1548:./Drivers/STM32F1xx_HAL_Driver/Src/stm32f1xx_hal_uart.c ****     SET_BIT(huart->Instance->CR3, USART_CR3_EIE);
 1821              		.loc 1 1548 5
 1822 006c 7B68     		ldr	r3, [r7, #4]
 1823 006e 1B68     		ldr	r3, [r3]
 1824 0070 5A69     		ldr	r2, [r3, #20]
 1825 0072 7B68     		ldr	r3, [r7, #4]
 1826 0074 1B68     		ldr	r3, [r3]
 1827 0076 42F00102 		orr	r2, r2, #1
 1828 007a 5A61     		str	r2, [r3, #20]
1549:./Drivers/STM32F1xx_HAL_Driver/Src/stm32f1xx_hal_uart.c **** 
1550:./Drivers/STM32F1xx_HAL_Driver/Src/stm32f1xx_hal_uart.c ****     /* Enable the UART DMA Rx request */
1551:./Drivers/STM32F1xx_HAL_Driver/Src/stm32f1xx_hal_uart.c ****     SET_BIT(huart->Instance->CR3, USART_CR3_DMAR);
 1829              		.loc 1 1551 5
 1830 007c 7B68     		ldr	r3, [r7, #4]
 1831 007e 1B68     		ldr	r3, [r3]
 1832 0080 5A69     		ldr	r2, [r3, #20]
 1833 0082 7B68     		ldr	r3, [r7, #4]
 1834 0084 1B68     		ldr	r3, [r3]
 1835 0086 42F04002 		orr	r2, r2, #64
 1836 008a 5A61     		str	r2, [r3, #20]
 1837              	.L87:
ARM GAS  C:\Users\nguye\AppData\Local\Temp\ccUjla8d.s 			page 60


1552:./Drivers/STM32F1xx_HAL_Driver/Src/stm32f1xx_hal_uart.c ****   }
1553:./Drivers/STM32F1xx_HAL_Driver/Src/stm32f1xx_hal_uart.c **** 
1554:./Drivers/STM32F1xx_HAL_Driver/Src/stm32f1xx_hal_uart.c ****   /* Process Unlocked */
1555:./Drivers/STM32F1xx_HAL_Driver/Src/stm32f1xx_hal_uart.c ****   __HAL_UNLOCK(huart);
 1838              		.loc 1 1555 3
 1839 008c 7B68     		ldr	r3, [r7, #4]
 1840 008e 0022     		movs	r2, #0
 1841 0090 83F83C20 		strb	r2, [r3, #60]
1556:./Drivers/STM32F1xx_HAL_Driver/Src/stm32f1xx_hal_uart.c **** 
1557:./Drivers/STM32F1xx_HAL_Driver/Src/stm32f1xx_hal_uart.c ****   return HAL_OK;
 1842              		.loc 1 1557 10
 1843 0094 0023     		movs	r3, #0
 1844              	.L85:
1558:./Drivers/STM32F1xx_HAL_Driver/Src/stm32f1xx_hal_uart.c **** }
 1845              		.loc 1 1558 1
 1846 0096 1846     		mov	r0, r3
 1847 0098 1437     		adds	r7, r7, #20
 1848              		.cfi_def_cfa_offset 4
 1849 009a BD46     		mov	sp, r7
 1850              		.cfi_def_cfa_register 13
 1851              		@ sp needed
 1852 009c 80BC     		pop	{r7}
 1853              		.cfi_restore 7
 1854              		.cfi_def_cfa_offset 0
 1855 009e 7047     		bx	lr
 1856              		.cfi_endproc
 1857              	.LFE79:
 1859              		.section	.text.HAL_UART_DMAStop,"ax",%progbits
 1860              		.align	1
 1861              		.global	HAL_UART_DMAStop
 1862              		.syntax unified
 1863              		.thumb
 1864              		.thumb_func
 1865              		.fpu softvfp
 1867              	HAL_UART_DMAStop:
 1868              	.LFB80:
1559:./Drivers/STM32F1xx_HAL_Driver/Src/stm32f1xx_hal_uart.c **** 
1560:./Drivers/STM32F1xx_HAL_Driver/Src/stm32f1xx_hal_uart.c **** /**
1561:./Drivers/STM32F1xx_HAL_Driver/Src/stm32f1xx_hal_uart.c ****   * @brief Stops the DMA Transfer.
1562:./Drivers/STM32F1xx_HAL_Driver/Src/stm32f1xx_hal_uart.c ****   * @param  huart  Pointer to a UART_HandleTypeDef structure that contains
1563:./Drivers/STM32F1xx_HAL_Driver/Src/stm32f1xx_hal_uart.c ****   *                the configuration information for the specified UART module.
1564:./Drivers/STM32F1xx_HAL_Driver/Src/stm32f1xx_hal_uart.c ****   * @retval HAL status
1565:./Drivers/STM32F1xx_HAL_Driver/Src/stm32f1xx_hal_uart.c ****   */
1566:./Drivers/STM32F1xx_HAL_Driver/Src/stm32f1xx_hal_uart.c **** HAL_StatusTypeDef HAL_UART_DMAStop(UART_HandleTypeDef *huart)
1567:./Drivers/STM32F1xx_HAL_Driver/Src/stm32f1xx_hal_uart.c **** {
 1869              		.loc 1 1567 1
 1870              		.cfi_startproc
 1871              		@ args = 0, pretend = 0, frame = 16
 1872              		@ frame_needed = 1, uses_anonymous_args = 0
 1873 0000 80B5     		push	{r7, lr}
 1874              		.cfi_def_cfa_offset 8
 1875              		.cfi_offset 7, -8
 1876              		.cfi_offset 14, -4
 1877 0002 84B0     		sub	sp, sp, #16
 1878              		.cfi_def_cfa_offset 24
 1879 0004 00AF     		add	r7, sp, #0
 1880              		.cfi_def_cfa_register 7
ARM GAS  C:\Users\nguye\AppData\Local\Temp\ccUjla8d.s 			page 61


 1881 0006 7860     		str	r0, [r7, #4]
1568:./Drivers/STM32F1xx_HAL_Driver/Src/stm32f1xx_hal_uart.c ****   uint32_t dmarequest = 0x00U;
 1882              		.loc 1 1568 12
 1883 0008 0023     		movs	r3, #0
 1884 000a FB60     		str	r3, [r7, #12]
1569:./Drivers/STM32F1xx_HAL_Driver/Src/stm32f1xx_hal_uart.c ****   /* The Lock is not implemented on this API to allow the user application
1570:./Drivers/STM32F1xx_HAL_Driver/Src/stm32f1xx_hal_uart.c ****      to call the HAL UART API under callbacks HAL_UART_TxCpltCallback() / HAL_UART_RxCpltCallback()
1571:./Drivers/STM32F1xx_HAL_Driver/Src/stm32f1xx_hal_uart.c ****      when calling HAL_DMA_Abort() API the DMA TX/RX Transfer complete interrupt is generated
1572:./Drivers/STM32F1xx_HAL_Driver/Src/stm32f1xx_hal_uart.c ****      and the correspond call back is executed HAL_UART_TxCpltCallback() / HAL_UART_RxCpltCallback()
1573:./Drivers/STM32F1xx_HAL_Driver/Src/stm32f1xx_hal_uart.c ****      */
1574:./Drivers/STM32F1xx_HAL_Driver/Src/stm32f1xx_hal_uart.c **** 
1575:./Drivers/STM32F1xx_HAL_Driver/Src/stm32f1xx_hal_uart.c ****   /* Stop UART DMA Tx request if ongoing */
1576:./Drivers/STM32F1xx_HAL_Driver/Src/stm32f1xx_hal_uart.c ****   dmarequest = HAL_IS_BIT_SET(huart->Instance->CR3, USART_CR3_DMAT);
 1885              		.loc 1 1576 16
 1886 000c 7B68     		ldr	r3, [r7, #4]
 1887 000e 1B68     		ldr	r3, [r3]
 1888 0010 5B69     		ldr	r3, [r3, #20]
 1889 0012 03F08003 		and	r3, r3, #128
 1890 0016 002B     		cmp	r3, #0
 1891 0018 14BF     		ite	ne
 1892 001a 0123     		movne	r3, #1
 1893 001c 0023     		moveq	r3, #0
 1894 001e DBB2     		uxtb	r3, r3
 1895              		.loc 1 1576 14
 1896 0020 FB60     		str	r3, [r7, #12]
1577:./Drivers/STM32F1xx_HAL_Driver/Src/stm32f1xx_hal_uart.c ****   if ((huart->gState == HAL_UART_STATE_BUSY_TX) && dmarequest)
 1897              		.loc 1 1577 13
 1898 0022 7B68     		ldr	r3, [r7, #4]
 1899 0024 93F83D30 		ldrb	r3, [r3, #61]
 1900 0028 DBB2     		uxtb	r3, r3
 1901              		.loc 1 1577 6
 1902 002a 212B     		cmp	r3, #33
 1903 002c 16D1     		bne	.L89
 1904              		.loc 1 1577 49 discriminator 1
 1905 002e FB68     		ldr	r3, [r7, #12]
 1906 0030 002B     		cmp	r3, #0
 1907 0032 13D0     		beq	.L89
1578:./Drivers/STM32F1xx_HAL_Driver/Src/stm32f1xx_hal_uart.c ****   {
1579:./Drivers/STM32F1xx_HAL_Driver/Src/stm32f1xx_hal_uart.c ****     CLEAR_BIT(huart->Instance->CR3, USART_CR3_DMAT);
 1908              		.loc 1 1579 5
 1909 0034 7B68     		ldr	r3, [r7, #4]
 1910 0036 1B68     		ldr	r3, [r3]
 1911 0038 5A69     		ldr	r2, [r3, #20]
 1912 003a 7B68     		ldr	r3, [r7, #4]
 1913 003c 1B68     		ldr	r3, [r3]
 1914 003e 22F08002 		bic	r2, r2, #128
 1915 0042 5A61     		str	r2, [r3, #20]
1580:./Drivers/STM32F1xx_HAL_Driver/Src/stm32f1xx_hal_uart.c **** 
1581:./Drivers/STM32F1xx_HAL_Driver/Src/stm32f1xx_hal_uart.c ****     /* Abort the UART DMA Tx channel */
1582:./Drivers/STM32F1xx_HAL_Driver/Src/stm32f1xx_hal_uart.c ****     if (huart->hdmatx != NULL)
 1916              		.loc 1 1582 14
 1917 0044 7B68     		ldr	r3, [r7, #4]
 1918 0046 5B6B     		ldr	r3, [r3, #52]
 1919              		.loc 1 1582 8
 1920 0048 002B     		cmp	r3, #0
 1921 004a 04D0     		beq	.L90
1583:./Drivers/STM32F1xx_HAL_Driver/Src/stm32f1xx_hal_uart.c ****     {
ARM GAS  C:\Users\nguye\AppData\Local\Temp\ccUjla8d.s 			page 62


1584:./Drivers/STM32F1xx_HAL_Driver/Src/stm32f1xx_hal_uart.c ****       HAL_DMA_Abort(huart->hdmatx);
 1922              		.loc 1 1584 7
 1923 004c 7B68     		ldr	r3, [r7, #4]
 1924 004e 5B6B     		ldr	r3, [r3, #52]
 1925 0050 1846     		mov	r0, r3
 1926 0052 FFF7FEFF 		bl	HAL_DMA_Abort
 1927              	.L90:
1585:./Drivers/STM32F1xx_HAL_Driver/Src/stm32f1xx_hal_uart.c ****     }
1586:./Drivers/STM32F1xx_HAL_Driver/Src/stm32f1xx_hal_uart.c ****     UART_EndTxTransfer(huart);
 1928              		.loc 1 1586 5
 1929 0056 7868     		ldr	r0, [r7, #4]
 1930 0058 FFF7FEFF 		bl	UART_EndTxTransfer
 1931              	.L89:
1587:./Drivers/STM32F1xx_HAL_Driver/Src/stm32f1xx_hal_uart.c ****   }
1588:./Drivers/STM32F1xx_HAL_Driver/Src/stm32f1xx_hal_uart.c **** 
1589:./Drivers/STM32F1xx_HAL_Driver/Src/stm32f1xx_hal_uart.c ****   /* Stop UART DMA Rx request if ongoing */
1590:./Drivers/STM32F1xx_HAL_Driver/Src/stm32f1xx_hal_uart.c ****   dmarequest = HAL_IS_BIT_SET(huart->Instance->CR3, USART_CR3_DMAR);
 1932              		.loc 1 1590 16
 1933 005c 7B68     		ldr	r3, [r7, #4]
 1934 005e 1B68     		ldr	r3, [r3]
 1935 0060 5B69     		ldr	r3, [r3, #20]
 1936 0062 03F04003 		and	r3, r3, #64
 1937 0066 002B     		cmp	r3, #0
 1938 0068 14BF     		ite	ne
 1939 006a 0123     		movne	r3, #1
 1940 006c 0023     		moveq	r3, #0
 1941 006e DBB2     		uxtb	r3, r3
 1942              		.loc 1 1590 14
 1943 0070 FB60     		str	r3, [r7, #12]
1591:./Drivers/STM32F1xx_HAL_Driver/Src/stm32f1xx_hal_uart.c ****   if ((huart->RxState == HAL_UART_STATE_BUSY_RX) && dmarequest)
 1944              		.loc 1 1591 13
 1945 0072 7B68     		ldr	r3, [r7, #4]
 1946 0074 93F83E30 		ldrb	r3, [r3, #62]
 1947 0078 DBB2     		uxtb	r3, r3
 1948              		.loc 1 1591 6
 1949 007a 222B     		cmp	r3, #34
 1950 007c 16D1     		bne	.L91
 1951              		.loc 1 1591 50 discriminator 1
 1952 007e FB68     		ldr	r3, [r7, #12]
 1953 0080 002B     		cmp	r3, #0
 1954 0082 13D0     		beq	.L91
1592:./Drivers/STM32F1xx_HAL_Driver/Src/stm32f1xx_hal_uart.c ****   {
1593:./Drivers/STM32F1xx_HAL_Driver/Src/stm32f1xx_hal_uart.c ****     CLEAR_BIT(huart->Instance->CR3, USART_CR3_DMAR);
 1955              		.loc 1 1593 5
 1956 0084 7B68     		ldr	r3, [r7, #4]
 1957 0086 1B68     		ldr	r3, [r3]
 1958 0088 5A69     		ldr	r2, [r3, #20]
 1959 008a 7B68     		ldr	r3, [r7, #4]
 1960 008c 1B68     		ldr	r3, [r3]
 1961 008e 22F04002 		bic	r2, r2, #64
 1962 0092 5A61     		str	r2, [r3, #20]
1594:./Drivers/STM32F1xx_HAL_Driver/Src/stm32f1xx_hal_uart.c **** 
1595:./Drivers/STM32F1xx_HAL_Driver/Src/stm32f1xx_hal_uart.c ****     /* Abort the UART DMA Rx channel */
1596:./Drivers/STM32F1xx_HAL_Driver/Src/stm32f1xx_hal_uart.c ****     if (huart->hdmarx != NULL)
 1963              		.loc 1 1596 14
 1964 0094 7B68     		ldr	r3, [r7, #4]
 1965 0096 9B6B     		ldr	r3, [r3, #56]
ARM GAS  C:\Users\nguye\AppData\Local\Temp\ccUjla8d.s 			page 63


 1966              		.loc 1 1596 8
 1967 0098 002B     		cmp	r3, #0
 1968 009a 04D0     		beq	.L92
1597:./Drivers/STM32F1xx_HAL_Driver/Src/stm32f1xx_hal_uart.c ****     {
1598:./Drivers/STM32F1xx_HAL_Driver/Src/stm32f1xx_hal_uart.c ****       HAL_DMA_Abort(huart->hdmarx);
 1969              		.loc 1 1598 7
 1970 009c 7B68     		ldr	r3, [r7, #4]
 1971 009e 9B6B     		ldr	r3, [r3, #56]
 1972 00a0 1846     		mov	r0, r3
 1973 00a2 FFF7FEFF 		bl	HAL_DMA_Abort
 1974              	.L92:
1599:./Drivers/STM32F1xx_HAL_Driver/Src/stm32f1xx_hal_uart.c ****     }
1600:./Drivers/STM32F1xx_HAL_Driver/Src/stm32f1xx_hal_uart.c ****     UART_EndRxTransfer(huart);
 1975              		.loc 1 1600 5
 1976 00a6 7868     		ldr	r0, [r7, #4]
 1977 00a8 FFF7FEFF 		bl	UART_EndRxTransfer
 1978              	.L91:
1601:./Drivers/STM32F1xx_HAL_Driver/Src/stm32f1xx_hal_uart.c ****   }
1602:./Drivers/STM32F1xx_HAL_Driver/Src/stm32f1xx_hal_uart.c **** 
1603:./Drivers/STM32F1xx_HAL_Driver/Src/stm32f1xx_hal_uart.c ****   return HAL_OK;
 1979              		.loc 1 1603 10
 1980 00ac 0023     		movs	r3, #0
1604:./Drivers/STM32F1xx_HAL_Driver/Src/stm32f1xx_hal_uart.c **** }
 1981              		.loc 1 1604 1
 1982 00ae 1846     		mov	r0, r3
 1983 00b0 1037     		adds	r7, r7, #16
 1984              		.cfi_def_cfa_offset 8
 1985 00b2 BD46     		mov	sp, r7
 1986              		.cfi_def_cfa_register 13
 1987              		@ sp needed
 1988 00b4 80BD     		pop	{r7, pc}
 1989              		.cfi_endproc
 1990              	.LFE80:
 1992              		.section	.text.HAL_UARTEx_ReceiveToIdle,"ax",%progbits
 1993              		.align	1
 1994              		.global	HAL_UARTEx_ReceiveToIdle
 1995              		.syntax unified
 1996              		.thumb
 1997              		.thumb_func
 1998              		.fpu softvfp
 2000              	HAL_UARTEx_ReceiveToIdle:
 2001              	.LFB81:
1605:./Drivers/STM32F1xx_HAL_Driver/Src/stm32f1xx_hal_uart.c **** 
1606:./Drivers/STM32F1xx_HAL_Driver/Src/stm32f1xx_hal_uart.c **** /**
1607:./Drivers/STM32F1xx_HAL_Driver/Src/stm32f1xx_hal_uart.c ****   * @brief Receive an amount of data in blocking mode till either the expected number of data is re
1608:./Drivers/STM32F1xx_HAL_Driver/Src/stm32f1xx_hal_uart.c ****   * @note   HAL_OK is returned if reception is completed (expected number of data has been received
1609:./Drivers/STM32F1xx_HAL_Driver/Src/stm32f1xx_hal_uart.c ****   *         or if reception is stopped after IDLE event (less than the expected number of data has 
1610:./Drivers/STM32F1xx_HAL_Driver/Src/stm32f1xx_hal_uart.c ****   *         In this case, RxLen output parameter indicates number of data available in reception bu
1611:./Drivers/STM32F1xx_HAL_Driver/Src/stm32f1xx_hal_uart.c ****   * @note   When UART parity is not enabled (PCE = 0), and Word Length is configured to 9 bits (M =
1612:./Drivers/STM32F1xx_HAL_Driver/Src/stm32f1xx_hal_uart.c ****   *         the received data is handled as a set of uint16_t. In this case, Size must indicate the
1613:./Drivers/STM32F1xx_HAL_Driver/Src/stm32f1xx_hal_uart.c ****   *         of uint16_t available through pData.
1614:./Drivers/STM32F1xx_HAL_Driver/Src/stm32f1xx_hal_uart.c ****   * @param huart   UART handle.
1615:./Drivers/STM32F1xx_HAL_Driver/Src/stm32f1xx_hal_uart.c ****   * @param pData   Pointer to data buffer (uint8_t or uint16_t data elements).
1616:./Drivers/STM32F1xx_HAL_Driver/Src/stm32f1xx_hal_uart.c ****   * @param Size    Amount of data elements (uint8_t or uint16_t) to be received.
1617:./Drivers/STM32F1xx_HAL_Driver/Src/stm32f1xx_hal_uart.c ****   * @param RxLen   Number of data elements finally received (could be lower than Size, in case rece
1618:./Drivers/STM32F1xx_HAL_Driver/Src/stm32f1xx_hal_uart.c ****   * @param Timeout Timeout duration expressed in ms (covers the whole reception sequence).
1619:./Drivers/STM32F1xx_HAL_Driver/Src/stm32f1xx_hal_uart.c ****   * @retval HAL status
ARM GAS  C:\Users\nguye\AppData\Local\Temp\ccUjla8d.s 			page 64


1620:./Drivers/STM32F1xx_HAL_Driver/Src/stm32f1xx_hal_uart.c ****   */
1621:./Drivers/STM32F1xx_HAL_Driver/Src/stm32f1xx_hal_uart.c **** HAL_StatusTypeDef HAL_UARTEx_ReceiveToIdle(UART_HandleTypeDef *huart, uint8_t *pData, uint16_t Size
1622:./Drivers/STM32F1xx_HAL_Driver/Src/stm32f1xx_hal_uart.c **** {
 2002              		.loc 1 1622 1
 2003              		.cfi_startproc
 2004              		@ args = 4, pretend = 0, frame = 32
 2005              		@ frame_needed = 1, uses_anonymous_args = 0
 2006 0000 80B5     		push	{r7, lr}
 2007              		.cfi_def_cfa_offset 8
 2008              		.cfi_offset 7, -8
 2009              		.cfi_offset 14, -4
 2010 0002 88B0     		sub	sp, sp, #32
 2011              		.cfi_def_cfa_offset 40
 2012 0004 00AF     		add	r7, sp, #0
 2013              		.cfi_def_cfa_register 7
 2014 0006 F860     		str	r0, [r7, #12]
 2015 0008 B960     		str	r1, [r7, #8]
 2016 000a 3B60     		str	r3, [r7]
 2017 000c 1346     		mov	r3, r2	@ movhi
 2018 000e FB80     		strh	r3, [r7, #6]	@ movhi
1623:./Drivers/STM32F1xx_HAL_Driver/Src/stm32f1xx_hal_uart.c ****   uint8_t  *pdata8bits;
1624:./Drivers/STM32F1xx_HAL_Driver/Src/stm32f1xx_hal_uart.c ****   uint16_t *pdata16bits;
1625:./Drivers/STM32F1xx_HAL_Driver/Src/stm32f1xx_hal_uart.c ****   uint32_t tickstart;
1626:./Drivers/STM32F1xx_HAL_Driver/Src/stm32f1xx_hal_uart.c **** 
1627:./Drivers/STM32F1xx_HAL_Driver/Src/stm32f1xx_hal_uart.c ****   /* Check that a Rx process is not already ongoing */
1628:./Drivers/STM32F1xx_HAL_Driver/Src/stm32f1xx_hal_uart.c ****   if (huart->RxState == HAL_UART_STATE_READY)
 2019              		.loc 1 1628 12
 2020 0010 FB68     		ldr	r3, [r7, #12]
 2021 0012 93F83E30 		ldrb	r3, [r3, #62]
 2022 0016 DBB2     		uxtb	r3, r3
 2023              		.loc 1 1628 6
 2024 0018 202B     		cmp	r3, #32
 2025 001a 40F0C980 		bne	.L95
1629:./Drivers/STM32F1xx_HAL_Driver/Src/stm32f1xx_hal_uart.c ****   {
1630:./Drivers/STM32F1xx_HAL_Driver/Src/stm32f1xx_hal_uart.c ****     if ((pData == NULL) || (Size == 0U))
 2026              		.loc 1 1630 8
 2027 001e BB68     		ldr	r3, [r7, #8]
 2028 0020 002B     		cmp	r3, #0
 2029 0022 02D0     		beq	.L96
 2030              		.loc 1 1630 25 discriminator 1
 2031 0024 FB88     		ldrh	r3, [r7, #6]
 2032 0026 002B     		cmp	r3, #0
 2033 0028 01D1     		bne	.L97
 2034              	.L96:
1631:./Drivers/STM32F1xx_HAL_Driver/Src/stm32f1xx_hal_uart.c ****     {
1632:./Drivers/STM32F1xx_HAL_Driver/Src/stm32f1xx_hal_uart.c ****       return  HAL_ERROR;
 2035              		.loc 1 1632 15
 2036 002a 0123     		movs	r3, #1
 2037 002c C1E0     		b	.L98
 2038              	.L97:
1633:./Drivers/STM32F1xx_HAL_Driver/Src/stm32f1xx_hal_uart.c ****     }
1634:./Drivers/STM32F1xx_HAL_Driver/Src/stm32f1xx_hal_uart.c **** 
1635:./Drivers/STM32F1xx_HAL_Driver/Src/stm32f1xx_hal_uart.c ****     __HAL_LOCK(huart);
 2039              		.loc 1 1635 5
 2040 002e FB68     		ldr	r3, [r7, #12]
 2041 0030 93F83C30 		ldrb	r3, [r3, #60]	@ zero_extendqisi2
 2042 0034 012B     		cmp	r3, #1
ARM GAS  C:\Users\nguye\AppData\Local\Temp\ccUjla8d.s 			page 65


 2043 0036 01D1     		bne	.L99
 2044              		.loc 1 1635 5 is_stmt 0 discriminator 1
 2045 0038 0223     		movs	r3, #2
 2046 003a BAE0     		b	.L98
 2047              	.L99:
 2048              		.loc 1 1635 5 discriminator 2
 2049 003c FB68     		ldr	r3, [r7, #12]
 2050 003e 0122     		movs	r2, #1
 2051 0040 83F83C20 		strb	r2, [r3, #60]
1636:./Drivers/STM32F1xx_HAL_Driver/Src/stm32f1xx_hal_uart.c **** 
1637:./Drivers/STM32F1xx_HAL_Driver/Src/stm32f1xx_hal_uart.c ****     huart->ErrorCode = HAL_UART_ERROR_NONE;
 2052              		.loc 1 1637 22 is_stmt 1 discriminator 2
 2053 0044 FB68     		ldr	r3, [r7, #12]
 2054 0046 0022     		movs	r2, #0
 2055 0048 1A64     		str	r2, [r3, #64]
1638:./Drivers/STM32F1xx_HAL_Driver/Src/stm32f1xx_hal_uart.c ****     huart->RxState = HAL_UART_STATE_BUSY_RX;
 2056              		.loc 1 1638 20 discriminator 2
 2057 004a FB68     		ldr	r3, [r7, #12]
 2058 004c 2222     		movs	r2, #34
 2059 004e 83F83E20 		strb	r2, [r3, #62]
1639:./Drivers/STM32F1xx_HAL_Driver/Src/stm32f1xx_hal_uart.c ****     huart->ReceptionType = HAL_UART_RECEPTION_TOIDLE;
 2060              		.loc 1 1639 26 discriminator 2
 2061 0052 FB68     		ldr	r3, [r7, #12]
 2062 0054 0122     		movs	r2, #1
 2063 0056 1A63     		str	r2, [r3, #48]
1640:./Drivers/STM32F1xx_HAL_Driver/Src/stm32f1xx_hal_uart.c **** 
1641:./Drivers/STM32F1xx_HAL_Driver/Src/stm32f1xx_hal_uart.c ****     /* Init tickstart for timeout management */
1642:./Drivers/STM32F1xx_HAL_Driver/Src/stm32f1xx_hal_uart.c ****     tickstart = HAL_GetTick();
 2064              		.loc 1 1642 17 discriminator 2
 2065 0058 FFF7FEFF 		bl	HAL_GetTick
 2066 005c 7861     		str	r0, [r7, #20]
1643:./Drivers/STM32F1xx_HAL_Driver/Src/stm32f1xx_hal_uart.c **** 
1644:./Drivers/STM32F1xx_HAL_Driver/Src/stm32f1xx_hal_uart.c ****     huart->RxXferSize  = Size;
 2067              		.loc 1 1644 24 discriminator 2
 2068 005e FB68     		ldr	r3, [r7, #12]
 2069 0060 FA88     		ldrh	r2, [r7, #6]	@ movhi
 2070 0062 9A85     		strh	r2, [r3, #44]	@ movhi
1645:./Drivers/STM32F1xx_HAL_Driver/Src/stm32f1xx_hal_uart.c ****     huart->RxXferCount = Size;
 2071              		.loc 1 1645 24 discriminator 2
 2072 0064 FB68     		ldr	r3, [r7, #12]
 2073 0066 FA88     		ldrh	r2, [r7, #6]	@ movhi
 2074 0068 DA85     		strh	r2, [r3, #46]	@ movhi
1646:./Drivers/STM32F1xx_HAL_Driver/Src/stm32f1xx_hal_uart.c **** 
1647:./Drivers/STM32F1xx_HAL_Driver/Src/stm32f1xx_hal_uart.c ****     /* In case of 9bits/No Parity transfer, pRxData needs to be handled as a uint16_t pointer */
1648:./Drivers/STM32F1xx_HAL_Driver/Src/stm32f1xx_hal_uart.c ****     if ((huart->Init.WordLength == UART_WORDLENGTH_9B) && (huart->Init.Parity == UART_PARITY_NONE))
 2075              		.loc 1 1648 21 discriminator 2
 2076 006a FB68     		ldr	r3, [r7, #12]
 2077 006c 9B68     		ldr	r3, [r3, #8]
 2078              		.loc 1 1648 8 discriminator 2
 2079 006e B3F5805F 		cmp	r3, #4096
 2080 0072 08D1     		bne	.L100
 2081              		.loc 1 1648 71 discriminator 1
 2082 0074 FB68     		ldr	r3, [r7, #12]
 2083 0076 1B69     		ldr	r3, [r3, #16]
 2084              		.loc 1 1648 56 discriminator 1
 2085 0078 002B     		cmp	r3, #0
 2086 007a 04D1     		bne	.L100
ARM GAS  C:\Users\nguye\AppData\Local\Temp\ccUjla8d.s 			page 66


